0000                          .ENGINE   mycomputer   
0000                TEC_1:    EQU   1   
0000                RC2014:   EQU   0   
0000                EXTENDED:   EQU   0   
0000                          IF   RC2014   
                                 ; Configuration for RC2014
                    ROMSTART:   EQU   $8000   
                    RAMSTART:   EQU   $8800   
                    LOADER:   EQU   0   
                    BITBANG:   EQU   0   
0000                          ENDIF      
0000                          IF   TEC_1   
0000                             ; Configuration for TEC-1
0000                LOADER:   EQU   0   
0000                BITBANG:   EQU   0   
0000                ROMSTART:   EQU   $0000   
0000                RAMSTART:   EQU   $2000   ; TODO: set this to TEC 1G
0000                ROMSIZE:   EQU   $2000   
0000                RAMSIZE:   EQU   $2000   
0000                             ;TEC-1D SC 8k rom/ram
0000                             ; ROMSTART .equ $0000
0000                             ; RAMSTART .equ $2000
0000                             ; ROMSIZE  .equ 8192
0000                             ; RAMSIZE  .equ 8192
0000                          ENDIF      
0000                .macro EXPECT,
0000                             ; 
0000                .endm
0000                 
0000                .macro TEST,
0000                             ; 
0000                 ld SP,STACK
0000                 call coldInit
0000                 call execStr
0000                 db %%1,0
0000                 pop HL
0000                 push HL
0000                 ld DE,%%2
0000                 or A
0000                 sbc HL,DE
0000                 ld A,L
0000                 or H
0000                 jp Z,expect%%M
0000                 call printStr
0000                 .cstr "Code: ",%%1
0000                 call printStr
0000                 .cstr "\r\n\r\nExpected: "
0000                 ld hl,%%2
0000                 push hl
0000                 push hl
0000                 call run
0000                 .cstr ".`$`.h"
0000                 call printStr
0000                 .cstr "\r\n\r\nActual: "
0000                 pop hl
0000                 push hl
0000                 push hl
0000                 call run
0000                 .cstr ".`$`.h`\r\n`"
0000                 halt
0000                expect%%M:
0000                 pop HL
0000                .endm
0000                 
0000                             ; ROM code
0000                             ; Targets:
0000                             ; TEC-1,TEC-1D,TEC-1F,Southern Cross,RC2014
0000                             ; Memory Map: 2k ROM/RAM, 8K ROM/RAM, RC2014
0000                             ; Serial: Bit Bang, 6850 ACIA
0000                             ; 
0000                          IF   TEC_1   
0000                          IF   BITBANG   
                                 ; 
                                 ; bit bang baud rate constants @ 4MHz
                    B300:     EQU   0220H   
                    B1200:    EQU   0080H   
                    B2400:    EQU   003FH   
                    B4800:    EQU   001BH   
                    B9600:    EQU   000BH   
                                 ; 
0000                          ELSE      ;6850
0000                             ; 
0000                             ; 
0000                             ; 6850 ACIA registers
0000                             ;----------------------
0000                CONTROL:   EQU   $80   ;(write) 
0000                STATUS:   EQU   $80   ;(read)
0000                TDR:      EQU   $81   ;(write)
0000                RDR:      EQU   $81   ;(read)
0000                             ; 
0000                             ; control register bits
0000                             ;----------------------
0000                             ; 
0000                             ;clock divisor
0000                             ; 
0000                MRESET:   EQU   $03   ;master reset the ACIA
0000                             ; DIV_0    .EQU  $00        ;CLOCK/1
0000                             ; DIV_16   .EQU  $01        ;CLOCK/16
0000                DIV_64:   EQU   $02   ;CLOCK/64
0000                             ; 
0000                             ; format select
0000                             ; 
0000                F7E2:     EQU   $00   ;7 data bits, EVEN parity, 2 stop bits (1+7+1+2= 11 bits)
0000                F7O2:     EQU   $04   ;7 data bits, ODD parity, 2 stop bits (1+7+1+2= 11 bits)
0000                F7E1:     EQU   $08   ;7 data bits, EVEN parity, 1 stop bit (1+7+1+1= 10 bits)
0000                F7O1:     EQU   $0C   ;7 data bits, ODD parity, 1 stop bit (1+7+1+1= 10 bits)
0000                F8N2:     EQU   $10   ;8 data bits, NO parity, 2 stop bits (1+8+0+2= 11 bits)
0000                F8N1:     EQU   $14   ;8 data bits, NO parity, 1 stop bit (1+8+0+1= 10 bits)
0000                F8E1:     EQU   $18   ;8 data bits, EVEN parity, 1 stop bit (1+8+1+1= 11 bits)
0000                F8O1:     EQU   $1C   ;8 data bits, ODD parity,1 stop bit (1+8+1+1= 11 bits)
0000                             ; 
0000                             ; transmitter control
0000                             ; 
0000                RTSLID:   EQU   $00   ;RTS LOW, transmit interrupt disabled
0000                RTSLIE:   EQU   $20   ;RTS LOW, transmit interrupt enabled
0000                RTSHID:   EQU   $40   ;RTS HIGH, transmit interrupt disabled
0000                RTSLIDB:   EQU   $60   ;RTS LOW, transmit interrupt disabled and "break" transmitted
0000                             ; 
0000                             ; receiver interrupt
0000                             ; 
0000                RIE:      EQU   $80   ;receiver interrupt enabled
0000                             ; 
0000                             ; status register bits
0000                             ;---------------------
0000                RDRF:     EQU   0   ;receive data register full
0000                TDRE:     EQU   1   ;transmit data register empty
0000                DCD:      EQU   2   ;data carrier detect
0000                CTS:      EQU   3   ;clear to send
0000                FE:       EQU   4   ;framing error
0000                OVRN:     EQU   5   ;overrun
0000                PE:       EQU   6   ;parity error
0000                IRQ:      EQU   7   ;interrupt request
0000                             ; 
0000                          ENDIF      
0000                          ENDIF      
0000                             ; 
0000                             ; I/O port addresses
0000                             ; 
0000                          IF   TEC_1   
0000                KEYBUF:   EQU   00H   ;MM74C923N KEYBOARD ENCODER
0000                SCAN:     EQU   01H   ;DISPLAY SCAN LATCH
0000                DISPLY:   EQU   02H   ;DISPLAY LATCH
0000                PORT3:    EQU   03H   ;ST3 (8X8), STROBE (RELAY BOARD) DATLATCH (DAT BOARD)
0000                PORT4:    EQU   04H   ;ST4 (8X8), LCD "E" (DAT BOARD)
0000                PORT5:    EQU   05H   
0000                PORT6:    EQU   06H   
0000                PORT7:    EQU   07H   ;ENABLE/DISABLE SINGLE STEPPER (IF INSTALLED)
0000                          ELSE      ;SC
                    IO0:      EQU   80H   ;IO PORT 0
                    IO1:      EQU   81H   ;IO PORT 1
                    IO2:      EQU   82H   ;IO PORT 2
                    IO3:      EQU   83H   ;IO PORT 3
                    DISPLY:   EQU   84H   ;DISPLAY LATCH
                    SCAN:     EQU   85H   ;DISPLAY SCAN LATCH
                    KEYBUF:   EQU   86H   ;KEYBOARD BUFFER
                    IO7:      EQU   87H   ;ENABLE/DISABLE SINGLE STEPPER (IF INSTALLED)
0000                          ENDIF      
0000                             ; 
0000                             ; ASCII codes
0000                ESC:      EQU   1BH   
0000                CR:       EQU   0DH   
0000                LF:       EQU   0AH   
0000                             ; 
0000                          .ORG   ROMSTART   
0000                             ;reset
0000                RSTVEC:      
0000   C3 8B 00               JP   RESET   
0003                             ;RST 1
0008                          .ORG   ROMSTART+$08   
0008   E5                     PUSH   hl   
0009   2A D0 55               LD   hl,(RST08)   
000C   E3                     EX   (sp),hl   
000D   C9                     RET      
000E                             ; 
000E                             ;RST 2
0010                          .ORG   ROMSTART+$10   
0010   E5                     PUSH   hl   
0011   2A D2 55               LD   hl,(RST10)   
0014   E3                     EX   (sp),hl   
0015   C9                     RET      
0016                             ; 
0016                             ;RST 3
0018                          .ORG   ROMSTART+$18   
0018   E5                     PUSH   hl   
0019   2A D4 55               LD   hl,(RST18)   
001C   E3                     EX   (sp),hl   
001D   C9                     RET      
001E                             ; 
001E                             ;RST 4
0020                          .ORG   ROMSTART+$20   
0020   E5                     PUSH   hl   
0021   2A D6 55               LD   hl,(RST20)   
0024   E3                     EX   (sp),hl   
0025   C9                     RET      
0026                             ; 
0026                             ;RST 5
0028                          .ORG   ROMSTART+$28   
0028   E5                     PUSH   hl   
0029   2A D8 55               LD   hl,(RST28)   
002C   E3                     EX   (sp),hl   
002D   C9                     RET      
002E                             ; 
002E                             ;RST 6
0030                          .ORG   ROMSTART+$30   
0030   E5                     PUSH   hl   
0031   2A DA 55               LD   hl,(RST30)   
0034   E3                     EX   (sp),hl   
0035   ED 4D                  RETI      
0037                             ; 
0037                             ;RST 7 Interrupt
0038                          .ORG   ROMSTART+$38   
0038   E5                     PUSH   hl   
0039   2A DE 55               LD   hl,(INTVEC)   
003C   E3                     EX   (sp),hl   
003D   ED 4D                  RETI      
003F                             ; 
0040                          .ORG   ROMSTART+$40   
0040                             ; 
0040                             ;hexadecimal to 7 segment display code table
0040                          IF   TEC_1   
0040                             ; 
0040                SEVENSEGMENT:      
0040   EB 28 CD AD            DB   0EBH,28H,0CDH,0ADH   ;0,1,2,3
0044   2E A7 E7 29            DB   2EH,0A7H,0E7H,29H   ;4,5,6,7
0048   EF 2F 6F E6            DB   0EFH,2FH,6FH,0E6H   ;8,9,A,B
004C   C3 EC C7 47            DB   0C3H,0ECH,0C7H,47H   ;C,D,E,F
0050                          ELSE      ;SC
                                 ; 
                    SEVENSEGMENT:      
                              DB   3FH,06H,5BH,4FH   ;0,1,2,3
                              DB   66H,6DH,7DH,07H   ;4,5,6,7
                              DB   7FH,6FH,77H,7CH   ;8,9,A,B
                              DB   39H,5EH,79H,71H   ;C,D,E,F
0050                          ENDIF      
0050                             ; 
0050                             ; 
0050                             ;---------------
0050                             ; BIT TIME DELAY
0050                             ;---------------
0050                             ;DELAY FOR ONE SERIAL BIT TIME
0050                             ;ENTRY : HL = DELAY TIME
0050                             ; NO REGISTERS MODIFIED
0050                             ; 
0050                PWRUP:       
0050   21 00 20               LD   hl,$2000   
0053                BITIME:      
0053   E5                     PUSH   HL   
0054   D5                     PUSH   DE   
0055   11 01 00               LD   DE,0001H   
0058                BITIM1:      
0058   ED 52                  SBC   HL,DE   
005A   D2 58 00               JP   NC,BITIM1   
005D   D1                     POP   DE   
005E   E1                     POP   HL   
005F                INTRET:      
005F   C9                     RET      
0060                             ; 
0060                             ;RST 8  Non Maskable Interrupt
0066                          .ORG   ROMSTART+$66   
0066   E5                     PUSH   HL   
0067   2A E0 55               LD   HL,(NMIVEC)   
006A   E9                     JP   (HL)   
006B                             ; 
006B                             ; 
006B                          IF   BITBANG   
                                 ; 
                                 ;------------------------
                                 ; SERIAL TRANSMIT ROUTINE
                                 ;------------------------
                                 ;TRANSMIT BYTE SERIALLY ON DOUT
                                 ; 
                                 ; ENTRY : A = BYTE TO TRANSMIT
                                 ;  EXIT : NO REGISTERS MODIFIED
                                 ; 
                                 ; 
                    TXCHAR:      
                    TXDATA:      
                              PUSH   AF   
                              PUSH   BC   
                              PUSH   HL   
                              LD   HL,(BAUD)   
                              LD   C,A   
                                 ; 
                                 ; TRANSMIT START BIT
                                 ; 
                              XOR   A   
                              OUT   (SCAN),A   
                              CALL   BITIME   
                                 ; 
                                 ; TRANSMIT DATA
                                 ; 
                              LD   B,08H   
                              RRC   C   
                    NXTBIT:      
                              RRC   C   ;SHIFT BITS TO D6,
                              LD   A,C   ;LSB FIRST AND OUTPUT
                              AND   40H   ;THEM FOR ONE BIT TIME.
                              OUT   (SCAN),A   
                              CALL   BITIME   
                              DJNZ   NXTBIT   
                                 ; 
                                 ; SEND STOP BITS
                                 ; 
                              LD   A,40H   
                              OUT   (SCAN),A   
                              CALL   BITIME   
                              CALL   BITIME   
                              POP   HL   
                              POP   BC   
                              POP   AF   
                              RET      
                                 ;-----------------------
                                 ; SERIAL RECEIVE ROUTINE
                                 ;-----------------------
                                 ;RECEIVE SERIAL BYTE FROM DIN
                                 ; 
                                 ; ENTRY : NONE
                                 ;  EXIT : A= RECEIVED BYTE IF CARRY CLEAR
                                 ; 
                                 ; REGISTERS MODIFIED A AND F
                                 ; 
                    RXCHAR:      
                    RXDATA:      
                              PUSH   BC   
                              PUSH   HL   
                                 ; 
                                 ; WAIT FOR START BIT 
                                 ; 
                    RXDAT1:   IN   A,(KEYBUF)   
                              BIT   7,A   
                              JR   NZ,RXDAT1   ;NO START BIT
                                 ; 
                                 ; DETECTED START BIT
                                 ; 
                              LD   HL,(BAUD)   
                              SRL   H   
                              RR   L   ;DELAY FOR HALF BIT TIME
                              CALL   BITIME   
                              IN   A,(KEYBUF)   
                              BIT   7,A   
                              JR   NZ,RXDAT1   ;START BIT NOT VALID
                                 ; 
                                 ; DETECTED VALID START BIT,READ IN DATA
                                 ; 
                              LD   B,08H   
                    RXDAT2:      
                              LD   HL,(BAUD)   
                              CALL   BITIME   ;DELAY ONE BIT TIME
                              IN   A,(KEYBUF)   
                              RL   A   
                              RR   C   ;SHIFT BIT INTO DATA REG
                              DJNZ   RXDAT2   
                              LD   A,C   
                              OR   A   ;CLEAR CARRY FLAG
                              POP   HL   
                              POP   BC   
                              RET      
                                 ; 
006B                          ELSE      ;6850
006B                             ; 
006B                             ; transmit a character in a
006B                             ;--------------------------
006B                TXDATA:      
006B                TXCHAR:      
006B   C5                     PUSH   bc   
006C   47                     LD   b,a   ;save the character  for later
006D                TXCHAR1:      
006D   DB 80                  IN   a,(STATUS)   ;get the ACIA status
006F   CB 4F                  BIT   1,a   
0071                             ;        bit   TDRE,a                ;is the TDRE bit high?
0071   28 FA                  JR   z,TxChar1   ;no, the TDR is not empty
0073   78                     LD   a,b   ;yes, get the character
0074   D3 81                  OUT   (TDR),a   ;and put it in the TDR
0076   C1                     POP   bc   
0077   C9                     RET      
0078                             ; 
0078                             ; receive  a character in a
0078                             ;---------------------------------
0078                RXDATA:      
0078                RXCHAR:      
0078   DB 80                  IN   a,(STATUS)   ;get the ACIA status
007A   CB 47                  BIT   0,a   
007C                             ;        bit   RDRF,a             ;is the RDRF bit high?
007C   28 FA                  JR   z,RxChar   ;no, the RDR is empty
007E   DB 81                  IN   a,(RDR)   ;yes, read the received char
0080   C9                     RET      
0081                          ENDIF      
0081                             ; 
0081                          IF   LOADER   
                                 ;   .ORG   ROMSTART + $0700
                                 ;-----------------------
                                 ; RECEIVE INTEL HEX FILE
                                 ;-----------------------
                    INTELH:      
                              LD   IX,BUF   
                                 ; 
                                 ; WAIT FOR RECORD MARK
                                 ; 
                    INTEL1:      
                              XOR   A   
                              LD   (IX+3),A   ;CLEAR CHECKSUM
                              CALL   RXDATA   ;WAIT FOR THE RECORD MARK
                              CP   ":"   ;TO BE TRANSMITTED
                              JR   NZ,INTEL1   ;NOT RECORD MARK
                                 ; 
                                 ; GET RECORD LENGTH
                                 ; 
                              CALL   GETBYT   
                              LD   (IX+0),A   ;NUMBER OF DATA BYTES
                                 ; 
                                 ; GET ADDRESS FIELD
                                 ; 
                              CALL   GETBYT   
                              LD   (IX+2),A   ;LOAD ADDRESS HIGH BYTE
                              CALL   GETBYT   
                              LD   (IX+1),A   ;LOAD ADDRESS LOW BYTE
                                 ; 
                                 ; GET RECORD TYPE
                                 ; 
                              CALL   GETBYT   
                              JR   NZ,INTEL4   ;END OF FILE RECORD
                                 ; 
                                 ; READ IN THE DATA
                                 ; 
                              LD   B,(IX+0)   ;NUMBER OF DATA BYTES
                              LD   H,(IX+2)   ;LOAD ADDRESS HIGH BYTE
                              LD   L,(IX+1)   ;LOAD ADDRESS LOW BYTE
                                 ; 
                    INTEL2:      
                              CALL   GETBYT   ;GET DATA BYTE
                              LD   (HL),A   ;STORE DATA BYTE
                              INC   HL   
                              DJNZ   INTEL2   ;LOAD MORE BYTES
                                 ; 
                                 ; GET CHECKSUM AND COMPARE
                                 ; 
                              LD   A,(IX+3)   ;CONVERT CHECKSUM TO
                              NEG      ;TWO'S COMPLEMENT
                              LD   (IX+4),A   ;SAVE COMPUTED CHECKSUM
                              CALL   GETBYT   
                              LD   (IX+3),A   ;SAVE RECORD CHECKSUM
                              CP   (IX+4)   ;COMPARE CHECKSUM
                              JR   Z,INTEL1   ;CHECKSUM OK,NEXT RECORD
                              RET      ;NZ=CHECKSUM ERROR
                                 ; 
                                 ; END OF FILE RECORD
                                 ; 
                    INTEL4:      
                              LD   A,(IX+3)   ;CONVERT CHECKSUM TO
                              NEG      ;TWO'S COMPLEMENT
                              LD   (IX+4),A   ;SAVE COMPUTED CHECKSUM
                              CALL   GETBYT   
                              LD   (IX+3),A   ;SAVE EOF CHECKSUM
                              CP   (IX+4)   ;COMPARE CHECKSUM
                              RET      ;NZ=CHECKSUM ERROR
                                 ;--------------------------
                                 ; GET BYTE FROM SERIAL PORT
                                 ;--------------------------
                    GETBYT:      
                              PUSH   BC   
                              CALL   RXDATA   
                              BIT   6,A   
                              JR   Z,GETBT1   
                              ADD   A,09H   
                    GETBT1:      
                              AND   0FH   
                              SLA   A   
                              SLA   A   
                              SLA   A   
                              SLA   A   
                              LD   C,A   
                                 ; 
                                 ; GET LOW NYBBLE
                                 ; 
                              CALL   RXDATA   
                              BIT   6,A   
                              JR   Z,GETBT2   
                              ADD   A,09H   
                    GETBT2:   AND   0FH   
                              OR   C   
                              LD   B,A   
                              ADD   A,(IX+3)   
                              LD   (IX+3),A   ;ADD TO CHECKSUM
                              LD   A,B   
                              AND   A   ;CLEAR CARRY
                              POP   BC   
                              RET      
0081                          ENDIF      
0081                             ; 
0081                             ; in this example code just wait for an INTEL Hex file download
0081                             ;just going to send a char to let you know I'm here
0081                          IF   LOADER   
                                 ; 
                    LOAD:        
                              LD   a,"L"   ; L for load
                              CALL   TxChar   
                              CALL   INTELH   
                              JP   z,RAMSTART   ;assume the downloaded code starts here
                              LD   a,"0"   ;0 is false
                              CALL   TxChar   
                              JR   load   ;if at first you don't succeed...
0081                          ENDIF      
0081                             ; 
0081                GETCHAR:      
0081   2A E2 55               LD   HL,(GETCVEC)   
0084   E9                     JP   (HL)   
0085                             ; 
0085                PUTCHAR:      
0085   E5                     PUSH   HL   
0086   2A E4 55               LD   HL,(PUTCVEC)   
0089   E3                     EX   (SP),HL   
008A   C9                     RET      
008B                             ; 
008B                RESET:       
008B   31 00 53               LD   SP,stack   
008E   21 5F 00               LD   HL,IntRet   
0091   22 D0 55               LD   (RST08),HL   
0094   22 D2 55               LD   (RST10),HL   
0097   22 D4 55               LD   (RST18),HL   
009A   22 D6 55               LD   (RST20),HL   
009D   22 D8 55               LD   (RST28),HL   
00A0   22 DA 55               LD   (RST30),HL   
00A3   22 DE 55               LD   (INTVEC),HL   
00A6   22 E0 55               LD   (NMIVEC),HL   
00A9                             ; 
00A9   21 78 00               LD   HL,RXDATA   
00AC   22 E2 55               LD   (GETCVEC),HL   
00AF   21 6B 00               LD   HL,TXDATA   
00B2   22 E4 55               LD   (PUTCVEC),HL   
00B5                             ; 
00B5                          IF   TEC_1   
00B5                          IF   BITBANG = 0   
00B5                             ; 
00B5   3E 03                  LD   a,MRESET   
00B7   D3 80                  OUT   (CONTROL),a   ;reset the ACIA
00B9                             ; 
00B9                          ENDIF      
00B9                          ENDIF      
00B9                             ; 
00B9   CD 50 00               CALL   PWRUP   
00BC   ED 56                  IM   1   
00BE   FB                     EI      
00BF                             ; 
00BF                          IF   TEC_1   
00BF                          IF   BITBANG   
                                 ; 
                                 ;inline serial initialisation
                              LD   A,$40   
                              LD   C,SCAN   
                              OUT   (C),A   
                              LD   HL,B4800   
                              LD   (BAUD),HL   
                                 ; 
00BF                          ELSE      ;6850      
00BF                             ; 
00BF   3E 12                  LD   a,RTSLID+F8N2+DIV_64   
00C1   D3 80                  OUT   (CONTROL),a   ;initialise ACIA  8 bit word, No parity 2 stop divide by 64 for 115200 baud
00C3                             ; 
00C3                          ENDIF      
00C3                          ENDIF      
00C3                             ; 
00C3                             ; 
00C3   C3 00 11               JP   testsStart   
00C6                             ; *************************************************************************
00C6                             ; 
00C6                             ;  Monty programming language for the Z80
00C6                             ; 
00C6                             ;  by John Hardy 2023
00C6                             ; 
00C6                             ;  GNU GENERAL PUBLIC LICENSE    Version 3, 29 June 2007
00C6                             ; 
00C6                             ;  see the LICENSE file in this repo for more information
00C6                             ; 
00C6                             ;  Incorporating code from the MINT project by Ken Boak and Craig Jones.
00C6                             ;  Inspiration from Charles H. Moore, Peter Jakacki and André Staltz
00C6                             ; 
00C6                             ; *****************************************************************************
00C6                TRUE:     EQU   -1   ; C-style true
00C6                FALSE:    EQU   0   
00C6                NUL:      EQU   0   ; exit code
00C6                DQ:       EQU   $22   ; " double quote char
00C6                CTRL_C:   EQU   3   
00C6                CTRL_E:   EQU   5   
00C6                CTRL_H:   EQU   8   
00C6                CTRL_J:   EQU   10   
00C6                CTRL_L:   EQU   12   
00C6                CTRL_P:   EQU   16   
00C6                CTRL_S:   EQU   19   
00C6                ESC:      EQU   27   
00C6                             ; macros for inlining a onty function in assembly
00C6                             ; follow immediately with a null terminated block of Monty code
00C6                .macro FUNC,name,numLocals,argsStr
00C6                             ; 
00C6                name:
00C6                 call go
00C6                 dw NUL                      ; NUL closure
00C6                 dw name%%M
00C6                 dw $+2
00C6                 db numLocals                ; num_locals
00C6                 .pstr argsStr
00C6                name%%M:
00C6                .endm
00C6                 
00C6                .macro PERFORM,name
00C6                             ; 
00C6                 ld ix,perform%%M
00C6                 jp name
00C6                perform%%M:
00C6                .endm
00C6                 
0180                          .ORG   ROMSTART + $180   ; 0+180 put monty code from here	
0180                             ;********************** PAGE 1 BEGIN *********************************************
0180                OPCODES:      
0180   21                     DB   lsb(bang_)   ; !     1
0181   0C                     DB   lsb(dquote_)   ; "     2
0182   5E                     DB   lsb(hash_)   ; #     1
0183   09                     DB   lsb(dollar_)   ; $     1
0184   12                     DB   lsb(percent_)   ; %     1
0185   73                     DB   lsb(amper_)   ; &     1
0186   0C                     DB   lsb(quote_)   ; '     2
0187   18                     DB   lsb(lparen_)   ; (     1
0188   6B                     DB   lsb(rparen_)   ; )     1
0189   A5                     DB   lsb(star_)   ; *     1
018A   C9                     DB   lsb(plus_)   ; +     1
018B   06                     DB   lsb(comma_)   ; ,     2
018C   7D                     DB   lsb(minus_)   ; -     1
018D   0F                     DB   lsb(dot_)   ; .     2
018E   1B                     DB   lsb(slash_)   ; /	    1
018F   1E                     DB   lsb(num_)   ; 0     1
0190   1E                     DB   lsb(num_)   ; 1
0191   1E                     DB   lsb(num_)   ; 2
0192   1E                     DB   lsb(num_)   ; 3
0193   1E                     DB   lsb(num_)   ; 4
0194   1E                     DB   lsb(num_)   ; 5
0195   1E                     DB   lsb(num_)   ; 6
0196   1E                     DB   lsb(num_)   ; 7
0197   1E                     DB   lsb(num_)   ; 8
0198   1E                     DB   lsb(num_)   ; 9
0199   04                     DB   lsb(colon_)   ; :     2
019A   5E                     DB   lsb(semicolon_)   ; ;     2
019B   4C                     DB   lsb(lt_)   ; <     1
019C   32                     DB   lsb(eq_)   ; =     1
019D   41                     DB   lsb(gt_)   ; >     1
019E   15                     DB   lsb(question_)   ; ?     1
019F   E9                     DB   lsb(at_)   ; @     2
01A0   E5                     DB   lsb(upcase_)   ; A     1
01A1   E5                     DB   lsb(upcase_)   ; B
01A2   E5                     DB   lsb(upcase_)   ; C
01A3   E5                     DB   lsb(upcase_)   ; D
01A4   E5                     DB   lsb(upcase_)   ; E
01A5   E5                     DB   lsb(upcase_)   ; F
01A6   E5                     DB   lsb(upcase_)   ; G
01A7   E5                     DB   lsb(upcase_)   ; h
01A8   E5                     DB   lsb(upcase_)   ; I
01A9   E5                     DB   lsb(upcase_)   ; J
01AA   E5                     DB   lsb(upcase_)   ; K
01AB   E5                     DB   lsb(upcase_)   ; L
01AC   E5                     DB   lsb(upcase_)   ; M
01AD   E5                     DB   lsb(upcase_)   ; N
01AE   E5                     DB   lsb(upcase_)   ; O
01AF   E5                     DB   lsb(upcase_)   ; p
01B0   E5                     DB   lsb(upcase_)   ; Q
01B1   E5                     DB   lsb(upcase_)   ; R
01B2   E5                     DB   lsb(upcase_)   ; S
01B3   E5                     DB   lsb(upcase_)   ; T
01B4   E5                     DB   lsb(upcase_)   ; U
01B5   E5                     DB   lsb(upcase_)   ; V
01B6   E5                     DB   lsb(upcase_)   ; W
01B7   E5                     DB   lsb(upcase_)   ; X
01B8   E5                     DB   lsb(upcase_)   ; Y
01B9   E5                     DB   lsb(upcase_)   ; Z
01BA   12                     DB   lsb(lbrack_)   ; [     2
01BB   2E                     DB   lsb(backslash_)   ; \     2
01BC   4F                     DB   lsb(rbrack_)   ; ]     2
01BD   9F                     DB   lsb(caret_)   ; ^     1
01BE   E1                     DB   lsb(underscore_)   ; _     2
01BF   B5                     DB   lsb(grave_)   ; `     2   	
01C0   00                     DB   lsb(lowcase_)   ; a     1
01C1   00                     DB   lsb(lowcase_)   ; b
01C2   00                     DB   lsb(lowcase_)   ; c
01C3   00                     DB   lsb(lowcase_)   ; d
01C4   00                     DB   lsb(lowcase_)   ; e
01C5   00                     DB   lsb(lowcase_)   ; f
01C6   00                     DB   lsb(lowcase_)   ; g
01C7   00                     DB   lsb(lowcase_)   ; h
01C8   00                     DB   lsb(lowcase_)   ; i
01C9   00                     DB   lsb(lowcase_)   ; j
01CA   00                     DB   lsb(lowcase_)   ; k
01CB   00                     DB   lsb(lowcase_)   ; l
01CC   00                     DB   lsb(lowcase_)   ; m
01CD   00                     DB   lsb(lowcase_)   ; n
01CE   00                     DB   lsb(lowcase_)   ; o
01CF   00                     DB   lsb(lowcase_)   ; p
01D0   00                     DB   lsb(lowcase_)   ; q
01D1   00                     DB   lsb(lowcase_)   ; r
01D2   00                     DB   lsb(lowcase_)   ; s
01D3   00                     DB   lsb(lowcase_)   ; t
01D4   00                     DB   lsb(lowcase_)   ; u
01D5   00                     DB   lsb(lowcase_)   ; v
01D6   00                     DB   lsb(lowcase_)   ; w
01D7   00                     DB   lsb(lowcase_)   ; x
01D8   00                     DB   lsb(lowcase_)   ; y
01D9   00                     DB   lsb(lowcase_)   ; z
01DA   CB                     DB   lsb(lbrace_)   ; {     1
01DB   D0                     DB   lsb(pipe_)   ; |     1
01DC   DB                     DB   lsb(rbrace_)   ; }     1
01DD   DE                     DB   lsb(tilde_)   ; ~     1
01DE                             ;********************** PAGE 1 END *********************************************
01DE                             ; ***********************************************************************
01DE                             ; Initial values for system vars		
01DE                             ; ***********************************************************************		
01DE                ISYSVARS:      
01DE   00 53                  DW   TIB   ; vTIBPtr pointer into TIB
01E0   00 54                  DW   BUFFER   ; vBufPtr pointer into BUF
01E2   22 56                  DW   HEAP   ; vHeapPtr \h start of the free mem
01E4   00 00                  DW   NUL   ; vRecurPtr
01E6   02                     DB   2   ; vDataWidth in bytes of array operations (default 1 byte)
01E7   0A                     DB   10   ; vNumBase = 10
01E8   24                     DB   "$"   ; vHexPrefix
01E9   FF                     DB   TRUE   ; vEcho
01EA   00                     DB   FALSE   ; vStrMode
01EB   00                     DB   0   
01EC   00                     DB   0   
01ED   00                     DB   0   
01EE   00                     DB   0   
01EF   00                     DB   0   
01F0                             ; **********************************************************************			
01F0                             ; title string (also used by warm boot)
01F0                             ; **********************************************************************
01F0                TITLESTR:      
01F0   1B 5B 32 4A 4D 6F 6E 74 79 20 56 30 2E 31 0D 0A 00 00 00 00 .CSTR   ESC,"[2JMonty V0.1\r\n",0,0,0   
0204                             ;********************** PAGE 2 BEGIN ***********************************
0204                COLON_:      
0204   DD E9                  JP   (ix)   
0206                COMMA_:      
0206   C3 85 0A               JP   comma   
0209                DOLLAR_:      
0209   C3 08 0B               JP   dollar   
020C                DQUOTE_:      
020C                QUOTE_:      
020C   C3 32 0B               JP   quote   
020F                DOT_:        
020F   C3 00 04               JP   dot   
0212                PERCENT_:      
0212   C3 4C 0B               JP   percent   
0215                QUESTION_:      
0215   C3 25 0B               JP   question   
0218                LPAREN_:      
0218   C3 CB 03               JP   lbrace   
021B                SLASH_:      
021B   C3 00 05               JP   slash   
021E                NUM_:        
021E   C3 81 0B               JP   num   
0221                BANG_:       
0221                BANG:        ; logical invert, any non zero value
0221   03                     INC   bc   
0222   0A                     LD   a,(bc)   
0223   FE 3D                  CP   "="   
0225   20 05                  JR   nz,not   
0227   E1                     POP   hl   
0228   D1                     POP   de   
0229   C3 C3 0C               JP   notequals   
022C                NOT:         
022C   0B                     DEC   bc   
022D   21 00 00               LD   hl,0   ; is considered true
0230   18 0B                  JR   eq1   
0232                EQ_:         
0232                EQ:          
0232   03                     INC   bc   
0233   0A                     LD   a,(bc)   
0234   FE 3D                  CP   "="   
0236   28 04                  JR   z,eq0   
0238   0B                     DEC   bc   
0239   C3 AB 0C               JP   assign   
023C                EQ0:         
023C   E1                     POP   hl   
023D                EQ1:         
023D   D1                     POP   de   
023E   C3 BC 0C               JP   equals   
0241                GT_:         
0241                GT:          
0241   03                     INC   bc   
0242   0A                     LD   a,(bc)   
0243   FE 3E                  CP   ">"   
0245   CA 23 0D               JP   z,shiftRight   
0248   D1                     POP   de   
0249   E1                     POP   hl   
024A   18 09                  JR   lt1   
024C                LT_:         
024C                LT:          
024C   03                     INC   bc   
024D   0A                     LD   a,(bc)   
024E   FE 3C                  CP   "<"   
0250   CA 07 0D               JP   z,shiftLeft   
0253   E1                     POP   hl   
0254   D1                     POP   de   
0255                LT1:         
0255   FE 3D                  CP   "="   
0257   CA CA 0C               JP   z,lessthaneq   
025A   0B                     DEC   bc   
025B   C3 CF 0C               JP   lessthan   
025E                             ; index of an array, based on vDataWidth 22
025E                             ; array* num -- value    ; also sets vPointer to address
025E                HASH_:       
025E                SEMICOLON_:      
025E                SEMICOLON:      
025E                ARRAYINDEX:      
025E   E1                     POP   hl   ; hl = index
025F   D1                     POP   de   ; de = array
0260   3A EE 55               LD   a,(vDataWidth)   ; a = data width
0263   3D                     DEC   a   
0264   28 01                  JR   z,arrayIndex1   
0266                ARRAYINDEX0:      
0266   29                     ADD   hl,hl   ; if data width = 2 then double
0267                ARRAYINDEX1:      
0267   19                     ADD   hl,de   ; add addr
0268   C3 B7 0E               JP   variable   
026B                             ;                               4
026B                RPAREN_:      
026B                             ; jp rparen
026B                RPAREN:      
026B   FD 4E 08               LD   c,(iy+8)   ; IP = block* just under stack frame
026E   FD 46 09               LD   b,(iy+9)   
0271   DD E9                  JP   (ix)   
0273                             ; & and                          14
0273                             ; a b -- c
0273                AMPER_:      
0273                AMPER:       
0273                AND:         
0273   D1                     POP   de   ; Bitwise and the top 2 elements of the stack
0274   E1                     POP   hl   
0275   7B                     LD   a,e   
0276   A5                     AND   l   
0277   6F                     LD   l,a   
0278   7A                     LD   a,d   
0279   A4                     AND   h   
027A   67                     LD   h,a   
027B   18 5B                  JR   add3   
027D                             ; - sub
027D                             ; a b -- c
027D                             ; -- sub
027D                             ; b1 -- b2
027D                             ; -= sub
027D                             ; a b1 -- b2
027D                MINUS_:      
027D                MINUS:       
027D   03                     INC   bc   ; check if sign of a number
027E   0A                     LD   a,(bc)   
027F   0B                     DEC   bc   
0280   FE 30                  CP   "0"   
0282   38 05                  JR   c,sub   
0284   FE 3A                  CP   "9"+1   
0286   DA 81 0B               JP   c,num   
0289                SUB:         ; Subtract the value 2nd on stack from top of stack
0289   E1                     POP   hl   ; hl = arg_b
028A   03                     INC   bc   
028B   FE 2D                  CP   "-"   
028D   20 04                  JR   nz,sub1   
028F   2B                     DEC   hl   ; --
0290   C3 AD 0C               JP   assign0   
0293                SUB1:        
0293   D1                     POP   de   ; de = arg_a
0294   FE 3D                  CP   "="   
0296   28 02                  JR   z,sub2   
0298   0B                     DEC   bc   ; -
0299   EB                     EX   de,hl   
029A                SUB2:        
029A   B7                     OR   a   ; -=
029B   ED 52                  SBC   hl,de   
029D                SUB3:        
029D   FE 3D                  CP   "="   
029F   CA AD 0C               JP   z,assign0   
02A2   E5                     PUSH   hl   
02A3   DD E9                  JP   (ix)   
02A5                STAR_:       ; 21
02A5                STAR:        
02A5   03                     INC   bc   ; check for ** spread
02A6   0A                     LD   a,(bc)   
02A7   FE 2A                  CP   "*"   
02A9   CA E3 0C               JP   z,spread   
02AC   0B                     DEC   bc   
02AD                MUL:         
02AD   D1                     POP   de   ; get first value
02AE   E1                     POP   hl   
02AF                MUL2:        
02AF   C5                     PUSH   bc   ; Preserve the IP
02B0   44 4D                  LD   bc,hl   ; bc = 2nd value
02B2   21 00 00               LD   hl,0   
02B5   3E 10                  LD   a,16   
02B7                MUL3:        
02B7   29                     ADD   hl,hl   
02B8   CB 13                  RL   e   
02BA   CB 12                  RL   d   
02BC   30 04                  JR   nc,$+6   
02BE   09                     ADD   hl,bc   
02BF   30 01                  JR   nc,$+3   
02C1   13                     INC   de   
02C2   3D                     DEC   a   
02C3   20 F2                  JR   nz,mul3   
02C5   C1                     POP   bc   ; Restore the IP
02C6   C3 D8 02               JP   add3   
02C9                             ; + add                         25
02C9                             ; a b -- c
02C9                PLUS_:       
02C9                PLUS:        
02C9                ADD:         
02C9   03                     INC   bc   
02CA   0A                     LD   a,(bc)   
02CB   FE 2B                  CP   "+"   ; ++ increment variable
02CD   20 05                  JR   nz,add1   
02CF   E1                     POP   hl   
02D0   23                     INC   hl   
02D1   C3 AD 0C               JP   assign0   
02D4                ADD1:        
02D4   0B                     DEC   bc   
02D5   D1                     POP   de   ; second term
02D6   E1                     POP   hl   ; first term
02D7   19                     ADD   hl,de   
02D8                ADD3:        
02D8   03                     INC   bc   
02D9   0A                     LD   a,(bc)   
02DA   FE 3D                  CP   "="   
02DC   28 04                  JR   z,add4   
02DE   0B                     DEC   bc   
02DF   E5                     PUSH   hl   
02E0   DD E9                  JP   (ix)   
02E2                ADD4:        
02E2   C3 AD 0C               JP   assign0   
02E5                             ;                               18
02E5                UPCASE_:      
02E5                UPCASE:      
02E5   0A                     LD   a,(bc)   ; a = identifier char
02E6   D6 41                  SUB   "A"   ; "A" = 0
02E8   18 1B                  JR   ident1   
02EA                             ;********************** PAGE 2 END *********************************************
02EA                          ALIGN   $100   
0300                             ;********************** PAGE 3 BEGIN *********************************************
0300                LOWCASE_:      
0300                LOWCASE:      
0300   0A                     LD   a,(bc)   
0301   D6 61                  SUB   "a"   
0303   C6 1A                  ADD   a,26   
0305                IDENT1:      
0305   87                     ADD   a,a   ; l = a * 2
0306   6F                     LD   l,a   
0307   26 55                  LD   h,msb(VARS)   
0309   22 F8 55               LD   (vPointer),hl   ; store address in setter
030C   5E                     LD   e,(hl)   
030D   23                     INC   hl   
030E   56                     LD   d,(hl)   
030F   D5                     PUSH   de   
0310   DD E9                  JP   (ix)   
0312                             ; [                             14
0312                LBRACK_:      
0312                LBRACK:      
0312                ARRAYSTART:      
0312   11 00 00               LD   de,0   ; create stack frame
0315   D5                     PUSH   de   ; push null for IP
0316   FD 5E 04               LD   e,(iy+4)   ; push arg_list* from parent stack frame
0319   FD 56 05               LD   d,(iy+5)   ; 
031C   D5                     PUSH   de   ; 
031D   FD 5E 02               LD   e,(iy+2)   ; push first_arg* from parent stack frame
0320   FD 56 03               LD   d,(iy+3)   ; 
0323   D5                     PUSH   de   ; 
0324   FD E5                  PUSH   iy   ; push BP
0326   FD 21 00 00            LD   iy,0   ; BP = SP
032A   FD 39                  ADD   iy,sp   
032C   DD E9                  JP   (ix)   
032E                             ; \                             19
032E                BACKSLASH_:      
032E                BACKSLASH:      
032E                LAMBDA:      
032E   DD E5                  PUSH   ix   
0330   CD 75 0D               CALL   parseArgs   
0333                LAMBDA1:      
0333   03                     INC   bc   ; arg_list must ve immediately followed by {
0334   0A                     LD   a,(bc)   
0335   FE 21                  CP   " "+1   ; skip white space
0337   38 FA                  JR   c,lambda1   
0339   FE 7B                  CP   "{"   
033B   28 06                  JR   z,lambda2   
033D   21 02 00               LD   hl,2   ; error 2: parse error
0340   C3 7B 10               JP   error   
0343                LAMBDA2:      
0343   CD AB 0D               CALL   parseBlock   
0346   CD 15 0E               CALL   createFunc   
0349   E1                     POP   hl   
034A   DD E1                  POP   ix   
034C   E5                     PUSH   hl   
034D   DD E9                  JP   (ix)   
034F                RBRACK_:      
034F                RBRACK:      
034F                ARRAYEND:      ; 53
034F   FD 54                  LD   d,iyh   ; de = BP
0351   FD 5D                  LD   e,iyl   
0353   ED 43 04 56            LD   (vTemp1),bc   ; save IP
0357   62 6B                  LD   hl,de   ; hl = de = BP
0359   B7                     OR   a   
035A   ED 72                  SBC   hl,sp   ; hl = array count (items on stack)
035C   CB 3C                  SRL   h   ; 
035E   CB 1D                  RR   l   
0360   44 4D                  LD   bc,hl   ; bc = count
0362   2A EA 55               LD   hl,(vHeapPtr)   ; hl = array[-4]
0365   71                     LD   (hl),c   ; write num items in length word
0366   23                     INC   hl   
0367   70                     LD   (hl),b   
0368   23                     INC   hl   ; hl = array[0], bc = count
0369                             ; de = BP, hl = array[0], bc = count
0369   18 15                  JR   arrayEnd3   
036B                ARRAYEND1:      
036B   FD 7E FE               LD   a,(iy-2)   ; a = lsb of stack item
036E   77                     LD   (hl),a   ; write lsb of array item
036F   23                     INC   hl   ; move to msb of array item
0370   3A EE 55               LD   a,(vDataWidth)   ; vDataWidth=1?
0373   3D                     DEC   a   
0374   28 05                  JR   z,arrayEnd2   
0376   FD 7E FF               LD   a,(iy-1)   ; a = msb of stack item
0379   77                     LD   (hl),a   ; write msb of array item
037A   23                     INC   hl   ; move to next word in array
037B                ARRAYEND2:      
037B   FD 2B                  DEC   iy   ; move to next word on stack
037D   FD 2B                  DEC   iy   
037F   0B                     DEC   bc   ; dec items count
0380                ARRAYEND3:      
0380   79                     LD   a,c   ; if not zero loop
0381   B0                     OR   b   
0382   20 E7                  JR   nz,arrayEnd1   
0384   EB                     EX   de,hl   ; de = end of array, hl = BP
0385   F9                     LD   sp,hl   ; sp = BP
0386   E1                     POP   hl   ; de = end of array, hl = old BP
0387   EB                     EX   de,hl   ; iy = de = old BP, hl = end of array
0388   FD 62                  LD   iyh,d   
038A   FD 6B                  LD   iyl,e   
038C   D1                     POP   de   ; pop arg_list (discard)
038D   D1                     POP   de   ; pop first_arg* (discard)
038E   D1                     POP   de   ; pop IP (discard)
038F   ED 5B EA 55            LD   de,(vHeapPtr)   ; de = array[-2]
0393   13                     INC   de   
0394   13                     INC   de   
0395   D5                     PUSH   de   ; return array[0]
0396   22 EA 55               LD   (vHeapPtr),hl   ; move heap* to end of array
0399   ED 4B 04 56            LD   bc,(vTemp1)   ; restore IP
039D   DD E9                  JP   (ix)   
039F                CARET_:      
039F                             ; execute a block of code which ends with } 116
039F                             ; creates a root scope if BP == stack
039F                             ; else uses outer scope
039F                CARET:       
039F                GO:          
039F   D1                     POP   de   ; de = block*
03A0                GO1:         
03A0   7B                     LD   a,e   ; if block* == null, exit
03A1   B2                     OR   d   
03A2   20 02                  JR   nz,go2   
03A4   DD E9                  JP   (ix)   
03A6                GO2:         
03A6   1A                     LD   a,(de)   
03A7   FE 7B                  CP   "{"   
03A9   CA 1E 0C               JP   z,goBlock   
03AC   FE 28                  CP   "("   
03AE   C2 51 0C               JP   nz,goFunc   
03B1   D5                     PUSH   de   ; push de just before stack frame
03B2   CA 1E 0C               JP   z,goBlock   
03B5                GRAVE_:      
03B5                GRAVE:       
03B5                PRINTLITERAL:      
03B5   03                     INC   bc   ; move to first char
03B6   ED 5B E8 55            LD   de,(vBufPtr)   ; de = buffer*
03BA   18 03                  JR   printLiteral1   
03BC                PRINTLITERAL0:      
03BC   12                     LD   (de),a   ; a -> buffer*
03BD   13                     INC   de   ; string*++,
03BE   03                     INC   bc   
03BF                PRINTLITERAL1:      
03BF   0A                     LD   a,(bc)   ; a <- string*
03C0   FE 60                  CP   "`"   ; if ` exit loop
03C2   20 F8                  JR   nz,printLiteral0   
03C4   ED 53 E8 55            LD   (vBufPtr),de   ; save buffer*' in pointer
03C8   C3 5B 0D               JP   dotNext   
03CB                LBRACE_:      
03CB                LBRACE:      
03CB   CD AB 0D               CALL   parseBlock   
03CE   DD E9                  JP   (ix)   
03D0                             ; | or                          11
03D0                             ; a b -- c
03D0                PIPE_:       
03D0                PIPE:        
03D0                OR:          
03D0   D1                     POP   de   ; Bitwise or the top 2 elements of the stack
03D1   E1                     POP   hl   
03D2   7B                     LD   a,e   
03D3   B5                     OR   l   
03D4   6F                     LD   l,a   
03D5   7A                     LD   a,d   
03D6   B4                     OR   h   
03D7   67                     LD   h,a   
03D8   C3 D8 02               JP   add3   
03DB                RBRACE_:      
03DB   C3 B1 0B               JP   rbrace   
03DE                             ; ~ char                        8
03DE                TILDE_:      
03DE   C3 FE 0A               JP   tilde   
03E1                UNDERSCORE_:      
03E1                CHAR:        
03E1   03                     INC   bc   ; point to next char
03E2   0A                     LD   a,(bc)   
03E3   6F                     LD   l,a   
03E4   26 00                  LD   h,0   
03E6   E5                     PUSH   hl   
03E7   DD E9                  JP   (ix)   
03E9                AT_:         
03E9                AT:          
03E9                ADDR:        
03E9   ED 5B F8 55            LD   de,(vPointer)   
03ED   21 F8 55               LD   hl,vPointer   
03F0   C3 B7 0E               JP   variable   
03F3                             ;********************** PAGE 3 END *********************************************
03F3                          ALIGN   $100   
0400                             ;********************** PAGE 4 BEGIN *********************************************
0400                             ;                               67
0400                DOT:         
0400                PRINT:       
0400   CD DF 0E               CALL   commandTable   
0403   61                     DB   "a"   ; .a print array
0404   3D 0A                  DW   printArray   
0406   63                     DB   "c"   ; .c print char
0407   0F 04                  DW   printChar   
0409   73                     DB   "s"   ; .s print string
040A   1E 04                  DW   printString   
040C   00                     DB   NUL   ; .  print number, fall through
040D   33 04                  DW   printNumber   
040F                             ; .c print char
040F                             ; char --
040F                PRINTCHAR:      
040F   E1                     POP   hl   ; a = char
0410   7D                     LD   a,l   
0411   ED 5B E8 55            LD   de,(vBufPtr)   ; de = buffer*
0415   12                     LD   (de),a   
0416   13                     INC   de   
0417   ED 53 E8 55            LD   (vBufPtr),de   ; save buffer*'
041B   C3 5B 0D               JP   dotNext   
041E                             ; .s print string
041E                             ; string* --
041E                PRINTSTRING:      
041E   E1                     POP   hl   ; hl = string*
041F   ED 5B E8 55            LD   de,(vBufPtr)   ; de = buffer*
0423   18 03                  JR   printString1   
0425                PRINTSTRING0:      
0425   12                     LD   (de),a   ; a -> buffer*
0426   13                     INC   de   ; string*++,
0427   23                     INC   hl   
0428                PRINTSTRING1:      
0428   7E                     LD   a,(hl)   ; a <- string*
0429   B7                     OR   a   ; if NUL exit loop
042A   20 F9                  JR   nz,printString0   
042C   ED 53 E8 55            LD   (vBufPtr),de   ; save buffer*' in pointer
0430   C3 5B 0D               JP   dotNext   
0433                             ; . print decimal
0433                             ; value --
0433                PRINTNUMBER:      
0433   3A EF 55               LD   a,(vNumBase)   
0436   FE 10                  CP   16   
0438   CA A4 04               JP   z,printHex   ; else falls through
043B   C3 3E 04               JP   printDec   
043E                             ; print decimal                 ; 70
043E                             ; value --
043E                PRINTDEC:      
043E   ED 5B E8 55            LD   de,(vBufPtr)   ; de"= buffer* bc" = IP
0442   D9                     EXX      
0443   E1                     POP   hl   ; hl = value
0444   3A EE 55               LD   a,(vDataWidth)   
0447   3D                     DEC   a   
0448   20 02                  JR   nz,printDec1   
044A   26 00                  LD   h,0   
044C                PRINTDEC1:      
044C   CD 5B 04               CALL   printDec2   
044F   D9                     EXX      ; de = buffer*' bc = IP
0450   3E 20                  LD   a," "   ; append space to buffer
0452   12                     LD   (de),a   
0453   13                     INC   de   ; string*++,
0454   ED 53 E8 55            LD   (vBufPtr),de   ; update buffer* with buffer*'
0458   C3 5B 0D               JP   dotNext   
045B                             ; hl = value
045B                             ; de' = buffer*
045B                             ; a, bc, de, hl destroyed
045B                PRINTDEC2:      
045B   CB 7C                  BIT   7,h   
045D   28 0C                  JR   z,printDec3   
045F   D9                     EXX      
0460   3E 2D                  LD   a,"-"   
0462   12                     LD   (de),a   
0463   13                     INC   de   
0464   D9                     EXX      
0465   AF                     XOR   a   
0466   95                     SUB   l   
0467   6F                     LD   l,a   
0468   9F                     SBC   a,a   
0469   94                     SUB   h   
046A   67                     LD   h,a   
046B                PRINTDEC3:      
046B   0E 00                  LD   c,0   ; leading zeros flag = false
046D   11 F0 D8               LD   de,-10000   
0470   CD 8B 04               CALL   printDec4   
0473   11 18 FC               LD   de,-1000   
0476   CD 8B 04               CALL   printDec4   
0479   11 9C FF               LD   de,-100   
047C   CD 8B 04               CALL   printDec4   
047F   1E F6                  LD   e,-10   
0481   CD 8B 04               CALL   printDec4   
0484   0C                     INC   c   ; flag = true for at least digit
0485   1E FF                  LD   e,-1   
0487   CD 8B 04               CALL   printDec4   
048A   C9                     RET      
048B                PRINTDEC4:      
048B   06 2F                  LD   b,"0"-1   
048D                PRINTDEC5:      
048D   04                     INC   b   
048E   19                     ADD   hl,de   
048F   38 FC                  JR   c,printDec5   
0491   ED 52                  SBC   hl,de   
0493   3E 30                  LD   a,"0"   
0495   B8                     CP   b   
0496   20 05                  JR   nz,printDec6   
0498   AF                     XOR   a   
0499   B1                     OR   c   
049A   C8                     RET   z   
049B   18 01                  JR   printDec7   
049D                PRINTDEC6:      
049D   0C                     INC   c   
049E                PRINTDEC7:      
049E   78                     LD   a,b   
049F   D9                     EXX      
04A0   12                     LD   (de),a   
04A1   13                     INC   de   
04A2   D9                     EXX      
04A3   C9                     RET      
04A4                             ; buffer hex                    37
04A4                             ; value --
04A4                PRINTHEX:      
04A4   ED 5B E8 55            LD   de,(vBufPtr)   
04A8   3A F0 55               LD   a,(vHexPrefix)   ; "$"
04AB   B7                     OR   a   ; skip if null
04AC   28 02                  JR   z,printHex1   
04AE   12                     LD   (de),a   
04AF   13                     INC   de   ; string*++,
04B0                PRINTHEX1:      
04B0   E1                     POP   hl   ; hl = value
04B1   3A EE 55               LD   a,(vDataWidth)   
04B4   3D                     DEC   a   
04B5   28 04                  JR   z,printHex2   
04B7   7C                     LD   a,h   
04B8   CD CA 04               CALL   printHex3   
04BB                PRINTHEX2:      
04BB   7D                     LD   a,l   
04BC   CD CA 04               CALL   printHex3   
04BF   3E 20                  LD   a," "   ; append space to buffer
04C1   12                     LD   (de),a   
04C2   13                     INC   de   ; string*++,
04C3   ED 53 E8 55            LD   (vBufPtr),de   
04C7   C3 5B 0D               JP   dotNext   
04CA                PRINTHEX3:      
04CA   F5                     PUSH   af   
04CB   1F                     RRA      
04CC   1F                     RRA      
04CD   1F                     RRA      
04CE   1F                     RRA      
04CF   CD D3 04               CALL   printHex4   
04D2   F1                     POP   af   
04D3                PRINTHEX4:      
04D3   E6 0F                  AND   0x0F   
04D5   C6 90                  ADD   a,0x90   
04D7   27                     DAA      
04D8   CE 40                  ADC   a,0x40   
04DA   27                     DAA      
04DB   12                     LD   (de),a   
04DC   13                     INC   de   ; string*++,
04DD   C9                     RET      
04DE                             ;********************** PAGE 4 END *********************************************
04DE                          ALIGN   $100   
0500                             ;********************** PAGE 5 BEGIN *********************************************
0500                SLASH:       
0500                COMMAND:      
0500   03                     INC   bc   
0501   0A                     LD   a,(bc)   
0502   FE 2F                  CP   "/"   ; // comment
0504   CA 42 06               JP   z,comment   
0507   0B                     DEC   bc   
0508   CD C9 0E               CALL   lowerCaseTable   
050B   26                     DB   lsb(command_a_)   
050C   38                     DB   lsb(command_b_)   
050D   CB                     DB   lsb(command_nop_)   
050E   44                     DB   lsb(command_d_)   
050F   CB                     DB   lsb(command_nop_)   
0510   4A                     DB   lsb(command_f_)   
0511   CB                     DB   lsb(command_nop_)   
0512   65                     DB   lsb(command_h_)   
0513   6B                     DB   lsb(command_i_)   
0514   CB                     DB   lsb(command_nop_)   
0515   CB                     DB   lsb(command_nop_)   
0516   CB                     DB   lsb(command_nop_)   
0517   71                     DB   lsb(command_m_)   
0518   CB                     DB   lsb(command_nop_)   
0519   77                     DB   lsb(output_)   
051A   7A                     DB   lsb(command_p_)   
051B   7D                     DB   lsb(command_q_)   
051C   83                     DB   lsb(command_r_)   
051D   8F                     DB   lsb(command_s_)   
051E   A4                     DB   lsb(true_)   
051F   CB                     DB   lsb(command_nop_)   
0520   A7                     DB   lsb(command_v_)   
0521   C2                     DB   lsb(command_w_)   
0522   C8                     DB   lsb(xor_)   
0523   CB                     DB   lsb(command_nop_)   
0524   CB                     DB   lsb(command_nop_)   
0525   CE                     DB   lsb(command_default_)   
0526                             ; 12
0526                COMMAND_A_:      
0526   62                     DB   "b"   ; /ab absolute
0527   EE 05                  DW   absolute   
0529   64                     DB   "d"   ; /ad address of
052A   FC 05                  DW   addrOf   
052C   69                     DB   "i"   ; /ai array iterator
052D   C3 07                  DW   arrayIter   
052F   6C                     DB   "l"   ; /al array length
0530   04 06                  DW   arrayLength   
0532   73                     DB   "s"   ; /as array size
0533   0D 06                  DW   arraySize   
0535   00                     DB   NUL   
0536   69 06                  DW   error1   
0538                COMMAND_B_:      
0538   62                     DB   "b"   ; /bb bye bye cold boot
0539   CC 0F                  DW   coldStart   
053B   6D                     DB   "m"   ; /bm byte mode
053C   3B 06                  DW   byteMode   
053E   72                     DB   "r"   ; /br break from loop
053F   21 06                  DW   break   
0541   00                     DB   NUL   
0542   69 06                  DW   error1   
0544                COMMAND_D_:      
0544   63                     DB   "c"   ; /dc decimal
0545   5D 06                  DW   decBase   
0547   00                     DB   NUL   
0548   69 06                  DW   error1   
054A                COMMAND_F_:      
054A   64                     DB   "d"   ; /fd fold
054B   68 09                  DW   fold   
054D   65                     DB   "e"   ; /fe forEach
054E   B9 09                  DW   forEach   
0550   73                     DB   "s"   ; /fs funcSrc
0551   04 0A                  DW   funcSrc   
0553   74                     DB   "t"   ; /ft filter
0554   0B 09                  DW   filter   
0556   31                     DB   "1"   
0557   BD 10                  DW   f1   
0559   32                     DB   "2"   
055A   C9 10                  DW   f2   
055C   33                     DB   "3"   
055D   D5 10                  DW   f3   
055F   34                     DB   "4"   
0560   E1 10                  DW   f4   
0562   00                     DB   NUL   
0563   DD 0C                  DW   false1   
0565                COMMAND_H_:      
0565   78                     DB   "x"   ; /hx hex
0566   64 06                  DW   hexBase   
0568   00                     DB   NUL   
0569   69 06                  DW   error1   
056B                             ; 6
056B                COMMAND_I_:      
056B   6E                     DB   "n"   ; /in input
056C   6F 06                  DW   input   
056E   00                     DB   NUL   
056F   69 06                  DW   error1   
0571                COMMAND_M_:      
0571   70                     DB   "p"   ; /mp map
0572   CA 08                  DW   map   
0574   00                     DB   NUL   
0575   69 06                  DW   error1   
0577                OUTPUT_:      
0577   00                     DB   NUL   
0578   7A 06                  DW   output   
057A                             ; 4
057A                COMMAND_P_:      
057A   00                     DB   NUL   
057B   69 06                  DW   error1   
057D                             ; 6
057D                COMMAND_Q_:      
057D   74                     DB   "t"   ; /qt quit
057E   83 06                  DW   quit   
0580   00                     DB   NUL   
0581   69 06                  DW   error1   
0583                COMMAND_R_:      
0583   63                     DB   "c"   ; /rc tail call optimisation
0584   8D 06                  DW   recur   
0586   65                     DB   "e"   ; /re remainder
0587   93 06                  DW   remain   
0589   67                     DB   "g"   ; /rg range src
058A   31 07                  DW   rangeSrc   
058C   00                     DB   NUL   
058D   69 06                  DW   error1   
058F                COMMAND_S_:      
058F   62                     DB   "b"   
0590   99 06                  DW   stringBegin   
0592   63                     DB   "c"   
0593   EB 06                  DW   stringCompare   
0595   65                     DB   "e"   
0596   A1 06                  DW   stringEnd   
0598   69                     DB   "i"   
0599   43 08                  DW   stringIter   
059B   6C                     DB   "l"   
059C   D0 06                  DW   stringLength   
059E   73                     DB   "s"   
059F   DF 06                  DW   stringSize   
05A1   00                     DB   NUL   
05A2   69 06                  DW   error1   
05A4                TRUE_:       
05A4   00                     DB   NUL   
05A5   D7 0C                  DW   true1   
05A7                COMMAND_V_:      
05A7   62                     DB   "b"   
05A8   03 07                  DW   varBufPtr   
05AA   62                     DB   "b"   
05AB   09 07                  DW   varEcho   
05AD   68                     DB   "h"   
05AE   0F 07                  DW   varHeapPtr   
05B0   74                     DB   "t"   
05B1   15 07                  DW   varTIBPtr   
05B3   78                     DB   "x"   
05B4   1B 07                  DW   varHexPrefix   
05B6   42                     DB   "B"   
05B7   57 06                  DW   constBufStart   
05B9   48                     DB   "H"   
05BA   4B 06                  DW   constHeapStart   
05BC   54                     DB   "T"   
05BD   51 06                  DW   constTIBStart   
05BF   00                     DB   NUL   
05C0   69 06                  DW   error1   
05C2                COMMAND_W_:      
05C2   6D                     DB   "m"   ; /wm word mode
05C3   21 07                  DW   wordMode   
05C5   00                     DB   NUL   
05C6   69 06                  DW   error1   
05C8                XOR_:        
05C8   00                     DB   NUL   
05C9   26 07                  DW   xor   
05CB                             ; 2
05CB                COMMAND_NOP_:      
05CB   00                     DB   NUL   
05CC   D1 05                  DW   nop   
05CE                             ; 3
05CE                COMMAND_DEFAULT_:      
05CE   00                     DB   NUL   
05CF   D3 05                  DW   div   
05D1                             ;********************** PAGE 5 END *********************************************
05D1                NOP:         
05D1   DD E9                  JP   (ix)   
05D3                             ;                               32
05D3                DIV:         
05D3   E1                     POP   hl   ; hl = arg_b
05D4   D1                     POP   de   ; de = arg_a
05D5   03                     INC   bc   
05D6   0A                     LD   a,(bc)   
05D7   FE 3D                  CP   "="   
05D9   28 02                  JR   z,div2   
05DB   0B                     DEC   bc   ; /
05DC   EB                     EX   de,hl   
05DD                DIV2:        
05DD   F5                     PUSH   af   ; preserve af, bc
05DE   C5                     PUSH   bc   
05DF   44 4D                  LD   bc,hl   
05E1   CD 42 0D               CALL   divide   
05E4   EB                     EX   de,hl   
05E5   ED 53 FA 55            LD   (vRemain),de   
05E9   C1                     POP   bc   ; restore
05EA   F1                     POP   af   
05EB   C3 9D 02               JP   sub3   
05EE                             ; /ab absolute
05EE                             ; num -- num
05EE                ABSOLUTE:      
05EE   E1                     POP   hl   
05EF   CB 7C                  BIT   7,h   
05F1   28 06                  JR   z,absolute1   
05F3   AF                     XOR   a   
05F4   95                     SUB   l   
05F5   6F                     LD   l,a   
05F6   9F                     SBC   a,a   
05F7   94                     SUB   h   
05F8   67                     LD   h,a   
05F9                ABSOLUTE1:      
05F9   E5                     PUSH   hl   
05FA   DD E9                  JP   (ix)   
05FC                             ; /ad addrOf                    24
05FC                             ; char -- addr
05FC                ADDROF:      
05FC   E1                     POP   hl   ; a = char
05FD   7D                     LD   a,l   
05FE   CD 18 0F               CALL   getVarAddr   
0601   E5                     PUSH   hl   
0602                ADDROF2:      
0602   DD E9                  JP   (ix)   
0604                             ; /al length of an array, num elements
0604                             ; array* -- num
0604                ARRAYLENGTH:      
0604   E1                     POP   hl   
0605   2B                     DEC   hl   ; msb size
0606   56                     LD   d,(hl)   
0607   2B                     DEC   hl   ; lsb size
0608   5E                     LD   e,(hl)   
0609   EB                     EX   de,hl   
060A                ARRAYLENGTH1:      
060A   E5                     PUSH   hl   
060B   DD E9                  JP   (ix)   
060D                             ; /as size in bytes of an array, based on current data width
060D                             ; array* -- num
060D                ARRAYSIZE:      
060D                          ;*Macro unroll:  PERFORM arrayLength
060D   DD 21 14 06            LD   ix,performM_1515S1032   
0611   C3 04 06               JP   arrayLength   
0614                PERFORMM_1515S1032:      
0614   E1                     POP   hl   
0615   3A EE 55               LD   a,(vDataWidth)   
0618   3D                     DEC   a   
0619   28 EF                  JR   z,arrayLength1   
061B   CB 3C                  SRL   h   
061D   CB 1D                  RR   l   
061F   18 E9                  JR   arrayLength1   
0621                             ; 13
0621                             ; /br break from loop
0621                             ; --
0621                BREAK:       
0621   E1                     POP   hl   ; hl = condition, break if false
0622   7D                     LD   a,l   
0623   B4                     OR   h   
0624   28 02                  JR   z,break1   
0626   DD E9                  JP   (ix)   
0628                BREAK1:      
0628   FD 5D                  LD   e,iyl   ; get block* just under stack frame
062A   FD 54                  LD   d,iyh   
062C   21 08 00               LD   hl,8   
062F   19                     ADD   hl,de   
0630   23                     INC   hl   
0631   23                     INC   hl   
0632   FD 75 02               LD   (iy+2),l   ; force first_arg* into this scope for clean up
0635   FD 74 03               LD   (iy+3),h   ; first_arg* = address of block*
0638   C3 B1 0B               JP   blockEnd   
063B                             ; /b
063B                BYTEMODE:      
063B   3E 01                  LD   a,1   
063D                BYTEMODE1:      
063D   32 EE 55               LD   (vDataWidth),a   
0640   DD E9                  JP   (ix)   
0642                             ; //
0642                COMMENT:      
0642   03                     INC   bc   ; point to next char
0643   0A                     LD   a,(bc)   
0644   FE 20                  CP   " "   ; terminate on any char less than SP
0646   30 FA                  JR   nc,comment   
0648   0B                     DEC   bc   
0649   DD E9                  JP   (ix)   
064B                CONSTHEAPSTART:      
064B   11 22 56               LD   de,HEAP   
064E   C3 C6 0E               JP   constant   
0651                CONSTTIBSTART:      
0651   11 00 53               LD   de,TIB   
0654   C3 C6 0E               JP   constant   
0657                CONSTBUFSTART:      
0657   11 00 54               LD   de,BUFFER   
065A   C3 C6 0E               JP   constant   
065D                DECBASE:      
065D   3E 0A                  LD   a,10   
065F                DECBASE1:      
065F   32 EF 55               LD   (vNumBase),a   
0662   DD E9                  JP   (ix)   
0664                HEXBASE:      
0664   3E 10                  LD   a,16   
0666   C3 5F 06               JP   decBase1   
0669                ERROR1:      
0669   21 01 00               LD   hl,1   ; error 1: unknown command
066C   C3 7B 10               JP   error   
066F                             ; Z80 port input
066F                             ; port -- value
066F                INPUT:       
066F   E1                     POP   hl   
0670   59                     LD   e,c   ; save IP
0671   4D                     LD   c,l   
0672   ED 68                  IN   l,(c)   
0674   26 00                  LD   h,0   
0676   4B                     LD   c,e   ; restore IP
0677   E5                     PUSH   hl   
0678   DD E9                  JP   (ix)   
067A                             ; /o Z80 port output
067A                             ; value port --
067A                OUTPUT:      
067A   E1                     POP   hl   
067B   59                     LD   e,c   ; save IP
067C   4D                     LD   c,l   
067D   E1                     POP   hl   
067E   ED 69                  OUT   (c),l   
0680   4B                     LD   c,e   ; restore IP
0681   DD E9                  JP   (ix)   
0683                             ; /qt
0683                             ; bool --
0683                QUIT:        
0683   E1                     POP   hl   ; hl = condition, exit if true
0684   7D                     LD   a,l   
0685   B4                     OR   h   
0686   20 02                  JR   nz,quit1   
0688   DD E9                  JP   (ix)   
068A                QUIT1:       
068A   C3 B1 0B               JP   blockEnd   
068D                RECUR:       
068D   E1                     POP   hl   
068E   22 EC 55               LD   (vRecurPtr),hl   
0691   DD E9                  JP   (ix)   
0693                REMAIN:      
0693   2A FA 55               LD   hl,(vRemain)   
0696   E5                     PUSH   hl   
0697   DD E9                  JP   (ix)   
0699                STRINGBEGIN:      
0699   21 FF FF               LD   hl,TRUE   ; string mode = true
069C   22 F2 55               LD   (vStrMode),hl   
069F   18 27                  JR   stringEnd1   ; save hl in vBufPtr
06A1                STRINGEND:      
06A1   21 00 00               LD   hl,FALSE   ; string mode = false
06A4   22 F2 55               LD   (vStrMode),hl   
06A7   2A E8 55               LD   hl,(vBufPtr)   ; append NUL to string
06AA   AF                     XOR   a   
06AB   77                     LD   (hl),a   
06AC   23                     INC   hl   ; hl = string_end*
06AD   ED 43 04 56            LD   (vTemp1),bc   ; save IP
06B1   11 00 54               LD   de,BUFFER   ; de = string*
06B4   B7                     OR   a   ; bc = size
06B5   ED 52                  SBC   hl,de   
06B7   44 4D                  LD   bc,hl   
06B9   2A EA 55               LD   hl,(vHeapPtr)   ; hl = hstring*
06BC   EB                     EX   de,hl   ; hl = string*, de = hstring*, bc = size
06BD   D5                     PUSH   de   ; return hstring*
06BE   ED B0                  LDIR      ; copy size bytes from string* to hstring*
06C0   ED 53 EA 55            LD   (vHeapPtr),de   ; bump heap to hstring* += size
06C4   ED 4B 04 56            LD   bc,(vTemp1)   ; restore IP
06C8                STRINGEND1:      
06C8   21 00 54               LD   hl,BUFFER   ; reset vBufPtr
06CB   22 E8 55               LD   (vBufPtr),hl   
06CE   DD E9                  JP   (ix)   
06D0                STRINGLENGTH:      
06D0   D1                     POP   de   
06D1   21 00 00               LD   hl,0   
06D4   18 02                  JR   stringLength2   
06D6                STRINGLENGTH1:      
06D6   13                     INC   de   
06D7   23                     INC   hl   
06D8                STRINGLENGTH2:      
06D8   1A                     LD   a,(de)   
06D9   B7                     OR   a   
06DA   20 FA                  JR   nz,stringLength1   
06DC                STRINGLENGTH3:      
06DC   E5                     PUSH   hl   
06DD   DD E9                  JP   (ix)   
06DF                STRINGSIZE:      
06DF                          ;*Macro unroll:  PERFORM stringLength
06DF   DD 21 E6 06            LD   ix,performM_1656S1191   
06E3   C3 D0 06               JP   stringLength   
06E6                PERFORMM_1656S1191:      
06E6   E1                     POP   hl   
06E7   23                     INC   hl   
06E8   C3 DC 06               JP   stringLength3   
06EB                             ; /sc string compare
06EB                             ; string1* string2* -- bool
06EB                             ; Compares two null terminated strings.
06EB                STRINGCOMPARE:      
06EB   D1                     POP   de   
06EC   E1                     POP   hl   
06ED                STRINGCOMPARE1:      
06ED   1A                     LD   a,(de)   
06EE   BE                     CP   (hl)   
06EF   20 07                  JR   nz,stringCompare2   
06F1   B7                     OR   a   
06F2   28 09                  JR   z,stringCompare3   
06F4   13                     INC   de   
06F5   23                     INC   hl   
06F6   18 F5                  JR   stringCompare1   
06F8                STRINGCOMPARE2:      
06F8   21 00 00               LD   hl,FALSE   
06FB   18 03                  JR   stringCompare4   
06FD                STRINGCOMPARE3:      
06FD   21 FF FF               LD   hl,TRUE   
0700                STRINGCOMPARE4:      
0700   E5                     PUSH   hl   
0701   DD E9                  JP   (ix)   
0703                VARBUFPTR:      
0703   21 E8 55               LD   hl,vBufPtr   
0706   C3 B7 0E               JP   variable   
0709                VARECHO:      
0709   21 F1 55               LD   hl,vEcho   
070C   C3 B7 0E               JP   variable   
070F                VARHEAPPTR:      
070F   21 EA 55               LD   hl,vHeapPtr   
0712   C3 B7 0E               JP   variable   
0715                VARTIBPTR:      
0715   21 E6 55               LD   hl,vTIBPtr   
0718   C3 B7 0E               JP   variable   
071B                VARHEXPREFIX:      
071B   21 F0 55               LD   hl,vHexPrefix   
071E   C3 B7 0E               JP   variable   
0721                             ; /wm
0721                WORDMODE:      
0721   3E 02                  LD   a,2   
0723   C3 3D 06               JP   byteMode1   
0726                             ; /x
0726                XOR:         
0726   D1                     POP   de   ; Bitwise xor the top 2 elements of the stack
0727                XOR1:        
0727   E1                     POP   hl   
0728   7B                     LD   a,e   
0729   AD                     XOR   l   
072A   6F                     LD   l,a   
072B   7A                     LD   a,d   
072C   AC                     XOR   h   
072D   67                     LD   h,a   
072E   C3 D8 02               JP   add3   
0731                             ;*******************************************************************
0731                             ; Monty implementations
0731                             ;*******************************************************************
0731                             ; /rg rangeSrc
0731                             ; begin end step -- src
0731                          ;*Macro unroll: FUNC rangeSrc, 1, "besL"            ; range source: begin, end, step, local: L
0731                RANGESRC:      ; range source: begin, end, step, local: L
0731   CD 9F 03               CALL   go   
0734   00 00                  DW   NUL   
0736   40 07                  DW   rangeSrcM_1719S1264   
0738   3A 07                  DW   $+2   
073A   01                     DB   1   
073B   04 62 65 73 4C         .PSTR   "besL"   
0740                RANGESRCM_1719S1264:      
0740   7B                     DB   "{"   ; init mutable L [index active inrange_test]
0741   5B 25 62 20 2F 74 20 25 73 30 3E 7B 7B 25 61 25 65 3C 7D 7D 7B 7B 25 61 25 65 3E 7D 7D 3F 5D 20 25 4C 3D 20 DB   "[%b /t %s0>{{%a%e<}}{{%a%e>}}?] %L= "   
0765   5C 6B 74 7B            DB   "\\kt{"   
0769   30 25 74 21 3D 2F 71 74 DB   "0%t!=/qt"   ; break if type != 0
0771   5C 64 74 3A 61 7B      DB   "\\dt:a{"   ; return talkback to receive data
0777   25 4C 31 3B 21 2F 71 74 DB   "%L1;!/qt"   ; if not active don't send
077F   25 4C 30 3B 20 25 61 3D DB   "%L0; %a="   ; store current index in A
0787   25 73 20 25 4C 30 3B 20 2B 3D DB   "%s %L0; +="   ; inc value of index by step
0791   31 25 74 21 3D 2F 71 74 DB   "1%t!=/qt"   ; break if type != 0
0799   25 4C 32 3B 5E         DB   "%L2;^"   ; ifte: inrange_test?
079E   7B 25 61 20 31 7D 7B 2F 66 20 25 4C 31 3B 3D 20 30 20 32 7D DB   "{%a 1}{/f %L1;= 0 2}"   ; ifte: /t index, /f active = false, quit
07B2   3F 20 25 6B 2F 72 63   DB   "? %k/rc"   ; ifte: send to sink note: /rc recur
07B9   7D 20 30 20 25 6B 5E   DB   "} 0 %k^"   ; init sink
07C0   7D                     DB   "}"   
07C1   7D                     DB   "}"   
07C2   00                     DB   0   
07C3                             ; /ai arrayIter
07C3                             ; array* -- src
07C3                          ;*Macro unroll: FUNC arrayIter, 1, "aL"
07C3                ARRAYITER:      
07C3   CD 9F 03               CALL   go   
07C6   00 00                  DW   NUL   
07C8   D0 07                  DW   arrayIterM_1738S1284   
07CA   CC 07                  DW   $+2   
07CC   01                     DB   1   
07CD   02 61 4C               .PSTR   "aL"   
07D0                ARRAYITERM_1738S1284:      
07D0   7B                     DB   "{"   
07D1   5B 30 20 2F 74 20 25 61 2F 61 6C 5D 20 25 4C 3D DB   "[0 /t %a/al] %L="   ; init mutable L [index active size]
07E1   5C 6B 74 7B            DB   "\\kt{"   
07E5   30 25 74 21 3D 2F 71 74 DB   "0%t!=/qt"   ; break if type != 0
07ED   5C 64 74 3A 69 7B      DB   "\\dt:i{"   ; return talkback to receive data
07F3   25 4C 31 3B 21 2F 71 74 DB   "%L1;!/qt"   ; if not active don't send
07FB   25 4C 30 3B 20 25 69 3D DB   "%L0; %i="   ; store current index in i
0803   25 4C 30 3B 20 2B 2B   DB   "%L0; ++"   ; inc value of index
080A   31 25 74 21 3D 2F 71 74 DB   "1%t!=/qt"   ; break if type != 0
0812   25 69 20 25 4C 32 3B 20 3C DB   "%i %L2; <"   ; ifte: index < size
081B   7B 25 61 25 69 3B 20 31 7D 7B 2F 66 20 25 4C 31 3B 3D 20 30 20 32 7D DB   "{%a%i; 1}{/f %L1;= 0 2}"   ; ifte: /t value, /f active = false, quit
0832   3F 20 25 6B 2F 72 63   DB   "? %k/rc"   ; ifte: send to sink note: /rc recur
0839   7D 20 30 20 25 6B 5E   DB   "} 0 %k^"   ; init sink
0840   7D                     DB   "}"   
0841   7D                     DB   "}"   
0842   00                     DB   0   
0843                             ; /si stringIter
0843                             ; string* -- src
0843                          ;*Macro unroll: FUNC stringIter, 1, "sL"
0843                STRINGITER:      
0843   CD 9F 03               CALL   go   
0846   00 00                  DW   NUL   
0848   50 08                  DW   stringIterM_1757S1304   
084A   4C 08                  DW   $+2   
084C   01                     DB   1   
084D   02 73 4C               .PSTR   "sL"   
0850                STRINGITERM_1757S1304:      
0850   7B                     DB   "{"   
0851   5B 30 20 2F 74 5D 20 25 4C 3D DB   "[0 /t] %L="   ; init mutable L [index active]
085B   5C 6B 74 7B            DB   "\\kt{"   
085F   30 25 74 21 3D 2F 71 74 DB   "0%t!=/qt"   ; break if type != 0
0867   5C 64 74 3A 69 63 7B   DB   "\\dt:ic{"   ; return talkback to receive data
086E   25 4C 31 3B 21 2F 71 74 DB   "%L1;!/qt"   ; if not active don't send
0876   25 4C 30 3B 20 25 69 3D DB   "%L0; %i="   ; store current index in A
087E   25 4C 30 3B 20 2B 2B   DB   "%L0; ++"   ; inc value of index by step
0885   2F 62 6D 20 25 73 25 69 3B 20 2F 77 6D 20 25 63 3D DB   "/bm %s%i; /wm %c="   ; read byte at i, store in c as word
0896   31 25 74 21 3D 2F 71 74 DB   "1%t!=/qt"   ; break if type != 0
089E   25 63 20 30 20 21 3D   DB   "%c 0 !="   ; ifte: c != NUL ?
08A5   7B 25 63 20 31 7D 7B 2F 66 20 25 4C 31 3B 3D 20 30 20 32 7D DB   "{%c 1}{/f %L1;= 0 2}"   ; ifte: 1: send c, 2: active = false, send quit
08B9   3F 20 25 6B 2F 72 63   DB   "? %k/rc"   ; ifte: call sink note: /rc recur
08C0   7D 20 30 20 25 6B 5E   DB   "} 0 %k^"   ; init sink
08C7   7D                     DB   "}"   
08C8   7D                     DB   "}"   
08C9   00                     DB   0   
08CA                             ; /mp map
08CA                             ; src func -- src1
08CA                          ;*Macro unroll: FUNC map, 0, "sf"                   ; map: source, function
08CA                MAP:         ; map: source, function
08CA   CD 9F 03               CALL   go   
08CD   00 00                  DW   NUL   
08CF   D7 08                  DW   mapM_1777S1326   
08D1   D3 08                  DW   $+2   
08D3   00                     DB   0   
08D4   02 73 66               .PSTR   "sf"   
08D7                MAPM_1777S1326:      
08D7   7B                     DB   "{"   
08D8   5C 6B 74 7B            DB   "\\kt{"   
08DC   30 25 74 21 3D 2F 71 74 DB   "0%t!=/qt"   ; break if type != 0
08E4   5C 64 74 7B            DB   "\\dt{"   ; call source with tb
08E8   31 25 74 3D 3D         DB   "1%t=="   ; ifte: type == 1 ?
08ED   7B 25 64 20 25 66 5E 7D 7B 25 64 7D DB   "{%d %f^}{%d}"   ; ifte: func(data) or data
08F9   3F 20 25 74 20 25 6B 5E DB   "? %t %k^"   ; ifte: send to sink
0901   7D 20 30 20 25 73 5E   DB   "} 0 %s^"   
0908   7D                     DB   "}"   
0909   7D                     DB   "}"   
090A   00                     DB   0   
090B                             ; /ft filter
090B                             ; src pred -- src1
090B                          ;*Macro unroll: FUNC filter, 1, "spT"               ; filter: source, predicate, local: T
090B                FILTER:      ; filter: source, predicate, local: T
090B   CD 9F 03               CALL   go   
090E   00 00                  DW   NUL   
0910   19 09                  DW   filterM_1791S1341   
0912   14 09                  DW   $+2   
0914   01                     DB   1   
0915   03 73 70 54            .PSTR   "spT"   
0919                FILTERM_1791S1341:      
0919   7B                     DB   "{"   
091A   5B 30 5D 25 54 3D      DB   "[0]%T="   
0920   5C 6B 74 7B            DB   "\\kt{"   ; return talkback to receive data
0924   5C 64 74 7B            DB   "\\dt{"   ; call source with tb
0928   5B                     DB   "["   
0929   7B 25 64 20 25 54 30 3B 3D 20 2F 74 7D DB   "{%d %T0;= /t}"   ; case 0: store talkback in T[0], return true
0936   7B 25 64 20 25 70 5E 7D DB   "{%d %p^}"   ; case 1: return boolean based on predicate
093E   7B 2F 74 7D            DB   "{/t}"   ; case 2: return true
0942   5D 25 74 3B 5E         DB   "]%t;^"   ; select on %t
0947   7B 25 64 20 25 74 20 25 6B 5E 7D 7B 30 20 31 20 25 54 30 3B 5E 7D DB   "{%d %t %k^}{0 1 %T0;^}"   ; ifte: true send d to sink, false send 1 to talkback
095D   3F                     DB   "?"   
095E   7D 20 30 20 25 73 5E   DB   "} 0 %s^"   
0965   7D                     DB   "}"   
0966   7D                     DB   "}"   
0967   00                     DB   0   
0968                             ; /fd fold
0968                             ; reducer is a function like: \\da00bbLi4u
0968                             ; src init reducer -- src1
0968                          ;*Macro unroll: FUNC fold, 1, "sirA"                    ; src, init, reducer
0968                FOLD:        ; src, init, reducer
0968   CD 9F 03               CALL   go   
096B   00 00                  DW   NUL   
096D   77 09                  DW   foldM_1810S1361   
096F   71 09                  DW   $+2   
0971   01                     DB   1   
0972   04 73 69 72 41         .PSTR   "sirA"   
0977                FOLDM_1810S1361:      
0977   7B                     DB   "{"   ; reducer: \\da00bbLi4u
0978   5B 25 69 5D 25 41 3D   DB   "[%i]%A="   
097F   5C 6B 74 7B            DB   "\\kt{"   ; return talkback to receive data
0983   5C 64 74 7B            DB   "\\dt{"   ; call source with tb
0987   31 25 74 3D 3D         DB   "1%t=="   ; ifte: type == 1 ?
098C   7B 25 64 20 25 41 30 3B 20 25 72 5E 25 41 30 3B 3D 20 25 41 30 3B 7D 7B 25 64 7D DB   "{%d %A0; %r^%A0;= %A0;}{%d}"   ; ifte: reduce -> acc, acc or data
09A7   3F 20 25 74 20 25 6B 5E DB   "? %t %k^"   ; ifte: send to sink
09AF   7D 20 30 20 25 73 5E   DB   "} 0 %s^"   
09B6   7D                     DB   "}"   
09B7   7D                     DB   "}"   
09B8   00                     DB   0   
09B9                             ; /fe forEach
09B9                             ; src proc --
09B9                          ;*Macro unroll: FUNC forEach, 1, "spT"              ; forEach: source, procedure, local: T
09B9                FOREACH:      ; forEach: source, procedure, local: T
09B9   CD 9F 03               CALL   go   
09BC   00 00                  DW   NUL   
09BE   C7 09                  DW   forEachM_1824S1376   
09C0   C2 09                  DW   $+2   
09C2   01                     DB   1   
09C3   03 73 70 54            .PSTR   "spT"   
09C7                FOREACHM_1824S1376:      
09C7   7B                     DB   "{"   
09C8   5B 30 5D 25 54 3D      DB   "[0]%T="   
09CE   5C 64 74 7B            DB   "\\dt{"   ; return talkback to receive data ; $56AA
09D2   32 25 74 3D 3D 2F 71 74 DB   "2%t==/qt"   ; if type == 2 skip
09DA   30 25 74 3D 3D         DB   "0%t=="   ; ifte: type = 0 ?
09DF   7B 25 64 20 25 54 30 3B 3D 7D 7B 25 64 20 25 70 5E 7D DB   "{%d %T0;=}{%d %p^}"   ; ifte: 0: store talkback, 1: send data
09F1   3F                     DB   "?"   ; ifte:
09F2   30 20 31 20 25 54 30 3B 5E DB   "0 1 %T0;^"   ; 0 or 1: get next src data item
09FB   7D 20 30 20 25 73 5E   DB   "} 0 %s^"   
0A02   7D                     DB   "}"   
0A03   00                     DB   0   
0A04                             ; ; /fs funcSrc
0A04                             ; ; func -- src
0A04                          ;*Macro unroll: FUNC funcSrc, 0, "f"                      ; :f func or block
0A04                FUNCSRC:      ; :f func or block
0A04   CD 9F 03               CALL   go   
0A07   00 00                  DW   NUL   
0A09   10 0A                  DW   funcSrcM_1838S1391   
0A0B   0D 0A                  DW   $+2   
0A0D   00                     DB   0   
0A0E   01 66                  .PSTR   "f"   
0A10                FUNCSRCM_1838S1391:      
0A10   7B                     DB   "{"   
0A11   5C 6B 74 7B            DB   "\\kt{"   ; :kt sink, type
0A15   30 25 74 3D 3D 2F 62 72 DB   "0%t==/br"   ; break if t != 0
0A1D   5C 64 74 7B            DB   "\\dt{"   
0A21   31 25 74 3D 3D 2F 62 72 20 25 66 5E 20 31 20 25 6B 5E DB   "1%t==/br %f^ 1 %k^"   ; if t == 1 send data to sink
0A33   7D 20 30 20 25 6B 5E   DB   "} 0 %k^"   ; init sink
0A3A   7D                     DB   "}"   
0A3B   7D                     DB   "}"   
0A3C   00                     DB   0   
0A3D                          ;*Macro unroll: FUNC printArray, 2, "abc"
0A3D                PRINTARRAY:      
0A3D   CD 9F 03               CALL   go   
0A40   00 00                  DW   NUL   
0A42   4B 0A                  DW   printArrayM_1848S1402   
0A44   46 0A                  DW   $+2   
0A46   02                     DB   2   
0A47   03 61 62 63            .PSTR   "abc"   
0A4B                PRINTARRAYM_1848S1402:      
0A4B   7B                     DB   "{"   
0A4C   27 5B 20 27 2E 73 20 25 61 2F 61 6C 25 63 3D 20 30 25 62 3D 20 28 25 61 20 25 62 20 3B 2E 20 25 62 20 2B 2B 20 25 62 20 25 63 20 3C 2F 62 72 29 5E 20 27 5D 27 2E 73 DB   "'[ '.s %a/al%c= 0%b= (%a %b ;. %b ++ %b %c </br)^ ']'.s"   
0A83   7D                     DB   "}"   
0A84   00                     DB   0   
0A85                             ;*******************************************************************
0A85                             ; implementations continued
0A85                             ;*******************************************************************
0A85                COMMA:       
0A85   CD F7 0E               CALL   cmdTable   
0A88   63 00                  DB   "c",NUL   ; .c print char
0A8A   94 0A                  DW   readChar   
0A8C   73 00                  DB   "s",NUL   ; .s print string
0A8E   9D 0A                  DW   readString   
0A90   00 00                  DW   NUL   ; .  print number, fall through
0A92   BF 0A                  DW   readNumber   
0A94                READCHAR:      
0A94   CD 81 00               CALL   getchar   
0A97   26 00                  LD   h,0   
0A99   6F                     LD   l,a   
0A9A   E5                     PUSH   hl   
0A9B   DD E9                  JP   (ix)   
0A9D                READSTRING:      
0A9D   ED 5B EA 55            LD   de,(vHeapPtr)   
0AA1   D5                     PUSH   de   ; return start of string
0AA2                READSTRING1:      
0AA2   CD 81 00               CALL   getchar   
0AA5   FE 0D                  CP   "\r"   
0AA7   28 0D                  JR   z,readString2   
0AA9   12                     LD   (de),a   
0AAA   13                     INC   de   
0AAB   3A F1 55               LD   a,(vEcho)   
0AAE   3C                     INC   a   
0AAF   20 F1                  JR   nz,readString1   
0AB1   CD 85 00               CALL   putchar   
0AB4   18 EC                  JR   readString1   
0AB6                READSTRING2:      
0AB6   AF                     XOR   a   
0AB7   12                     LD   (de),a   
0AB8   13                     INC   de   
0AB9   ED 53 EA 55            LD   (vHeapPtr),de   
0ABD   DD E9                  JP   (ix)   
0ABF                READNUMBER:      
0ABF   DD E5                  PUSH   ix   
0AC1                          ;*Macro unroll:  PERFORM readString
0AC1   DD 21 C8 0A            LD   ix,performM_1892S1451   
0AC5   C3 9D 0A               JP   readString   
0AC8                PERFORMM_1892S1451:      
0AC8   60 69                  LD   hl,bc   ; save bc, hl = string*
0ACA   E3                     EX   (sp),hl   
0ACB   22 EA 55               LD   (vHeapPtr),hl   ; restore heap* to before string
0ACE   44 4D                  LD   bc,hl   
0AD0   0A                     LD   a,(bc)   
0AD1   FE 2D                  CP   "-"   
0AD3   28 11                  JR   z,readNumber1   
0AD5   FE 24                  CP   "$"   
0AD7   28 17                  JR   z,readNumber2   
0AD9   FE 30                  CP   "0"   
0ADB   30 09                  JR   nc,readNumber1   
0ADD   FE 3A                  CP   "9"+1   
0ADF   38 05                  JR   c,readNumber1   
0AE1   21 00 00               LD   hl,0   
0AE4   18 12                  JR   readNumber3   
0AE6                READNUMBER1:      
0AE6                          ;*Macro unroll:  PERFORM num
0AE6   DD 21 ED 0A            LD   ix,performM_1909S1468   
0AEA   C3 81 0B               JP   num   
0AED                PERFORMM_1909S1468:      
0AED   E1                     POP   hl   
0AEE   18 08                  JR   readNumber3   
0AF0                READNUMBER2:      
0AF0                          ;*Macro unroll:  PERFORM hexNum
0AF0   DD 21 F7 0A            LD   ix,performM_1913S1472   
0AF4   C3 08 0B               JP   hexNum   
0AF7                PERFORMM_1913S1472:      
0AF7   E1                     POP   hl   
0AF8                READNUMBER3:      
0AF8   C1                     POP   bc   
0AF9   DD E1                  POP   ix   
0AFB   E5                     PUSH   hl   
0AFC   DD E9                  JP   (ix)   
0AFE                             ; ~ bitwise invert
0AFE                TILDE:       
0AFE                INVERT:      
0AFE   E1                     POP   hl   ; Bitwise xor the top 2 elements of the stack
0AFF   7D                     LD   a,l   
0B00   2F                     CPL      
0B01   6F                     LD   l,a   
0B02   7C                     LD   a,h   
0B03   2F                     CPL      
0B04   67                     LD   h,a   
0B05   C3 D8 02               JP   add3   
0B08                             ; $ hex                         ; 22
0B08                DOLLAR:      
0B08                HEXNUM:      
0B08   21 00 00               LD   hl,0   ; Clear hl to accept the number
0B0B                HEXNUM1:      
0B0B   03                     INC   bc   
0B0C   0A                     LD   a,(bc)   ; Get the character which is a numeral
0B0D   CB 77                  BIT   6,a   ; is it uppercase alpha?
0B0F   28 02                  JR   z,hexnum2   ; no a decimal
0B11   D6 07                  SUB   7   ; sub 7  to make $a - $F
0B13                HEXNUM2:      
0B13   D6 30                  SUB   $30   ; form decimal digit
0B15   DA A3 0B               JP   c,num2   
0B18   FE 10                  CP   $0F+1   
0B1A   D2 A3 0B               JP   nc,num2   
0B1D   29                     ADD   hl,hl   ; 2X ; Multiply digit(s) in hl by 16
0B1E   29                     ADD   hl,hl   ; 4X
0B1F   29                     ADD   hl,hl   ; 8X
0B20   29                     ADD   hl,hl   ; 16X
0B21   85                     ADD   a,l   ; add into bottom of hl
0B22   6F                     LD   l,a   
0B23   18 E6                  JR   hexnum1   
0B25                             ; ? if                            23
0B25                             ; condition then else -- value
0B25                QUESTION:      
0B25                IF:          
0B25   D1                     POP   de   ; de = else
0B26   E1                     POP   hl   ; hl = then
0B27   E3                     EX   (sp),hl   ; hl = condition, (sp) = then
0B28   7C                     LD   a,h   
0B29   B5                     OR   l   
0B2A   E1                     POP   hl   ; hl = then
0B2B   CA A0 03               JP   z,go1   ; if z de = else
0B2E   EB                     EX   de,hl   ; condition = false, de = then
0B2F   C3 A0 03               JP   go1   
0B32                             ; string                        ;38
0B32                             ; -- ptr                        ; points to start of string chars,                                 ; length is stored at start - 2 bytes
0B32                QUOTE:       
0B32                STRING:      
0B32   2A EA 55               LD   hl,(vHeapPtr)   ; hl = heap*
0B35   E5                     PUSH   hl   ; save start of string
0B36   0A                     LD   a,(bc)   
0B37   5F                     LD   e,a   ; e = matching terminator
0B38   03                     INC   bc   ; point to next char
0B39   18 03                  JR   string2   
0B3B                STRING1:      
0B3B   77                     LD   (hl),a   
0B3C   23                     INC   hl   ; increase count
0B3D   03                     INC   bc   ; point to next char
0B3E                STRING2:      
0B3E   0A                     LD   a,(bc)   
0B3F   BB                     CP   e   ; is it the string terminator
0B40   28 02                  JR   z,string3   
0B42   18 F7                  JR   string1   
0B44                STRING3:      
0B44   AF                     XOR   a   ; write NUL to terminate string
0B45   77                     LD   (hl),a   ; hl = end of string
0B46   23                     INC   hl   
0B47   22 EA 55               LD   (vHeapPtr),hl   ; bump heap* to after end of string
0B4A   DD E9                  JP   (ix)   
0B4C                             ; %a .. %z                      43
0B4C                             ; -- value
0B4C                             ; returns value of arg
0B4C                PERCENT:      
0B4C                ARG:         
0B4C   FD 5E 04               LD   e,(iy+4)   ; hl = arg_list*
0B4F   FD 56 05               LD   d,(iy+5)   
0B52   EB                     EX   de,hl   
0B53   7D                     LD   a,l   ; arg_list* == null, skip
0B54   B4                     OR   h   
0B55   28 1A                  JR   z,arg0a   
0B57   23                     INC   hl   ; a = num_args, hl = arg_list*
0B58   7E                     LD   a,(hl)   
0B59   23                     INC   hl   
0B5A   B7                     OR   a   
0B5B   28 14                  JR   z,arg0a   ; num_args == 0, skip
0B5D   5F                     LD   e,a   ; e = a = num_args
0B5E   03                     INC   bc   ; a = next char = dollar_name
0B5F   0A                     LD   a,(bc)   
0B60   C5                     PUSH   bc   ; save IP
0B61   43                     LD   b,e   ; b = e = num_args
0B62   FD 5E 02               LD   e,(iy+2)   ; de = first_arg*, hl = argslist*
0B65   FD 56 03               LD   d,(iy+3)   
0B68                ARG0:        
0B68   1B                     DEC   de   ; a = dollar_name, de = next arg*
0B69   1B                     DEC   de   
0B6A   BE                     CP   (hl)   
0B6B   28 09                  JR   z,arg1   
0B6D   23                     INC   hl   ; hl = next arg_list*
0B6E   10 F8                  DJNZ   arg0   
0B70   C1                     POP   bc   ; no match, restore IP
0B71                ARG0A:       
0B71   11 00 00               LD   de,0   ; return 0
0B74   18 08                  JR   arg1a   
0B76                ARG1:        
0B76   C1                     POP   bc   ; restore IP
0B77   EB                     EX   de,hl   ; hl = arg*
0B78   22 F8 55               LD   (vPointer),hl   ; store arg* in setter
0B7B   5E                     LD   e,(hl)   
0B7C   23                     INC   hl   
0B7D   56                     LD   d,(hl)   ; de = arg
0B7E                ARG1A:       
0B7E   D5                     PUSH   de   ; push arg
0B7F   DD E9                  JP   (ix)   
0B81                             ; 0..9 number                   37
0B81                NUM:         
0B81   21 00 00               LD   hl,$0000   ; Clear hl to accept the number
0B84   0A                     LD   a,(bc)   ; Get numeral or -
0B85   FE 2D                  CP   "-"   
0B87   20 01                  JR   nz,num0   
0B89   03                     INC   bc   ; move to next char, no flags affected
0B8A                NUM0:        
0B8A   08                     EX   af,af'   ; save zero flag = 0 for later
0B8B                NUM1:        
0B8B   0A                     LD   a,(bc)   ; read digit
0B8C   D6 30                  SUB   "0"   ; less than 0?
0B8E   38 13                  JR   c,num2   ; not a digit, exit loop
0B90   FE 0A                  CP   10   ; greater that 9?
0B92   30 0F                  JR   nc,num2   ; not a digit, exit loop
0B94   03                     INC   bc   ; inc IP
0B95   54 5D                  LD   de,hl   ; multiply hl * 10
0B97   29                     ADD   hl,hl   
0B98   29                     ADD   hl,hl   
0B99   19                     ADD   hl,de   
0B9A   29                     ADD   hl,hl   
0B9B   85                     ADD   a,l   ; add digit in a to hl
0B9C   6F                     LD   l,a   
0B9D   3E 00                  LD   a,0   
0B9F   8C                     ADC   a,h   
0BA0   67                     LD   h,a   
0BA1   18 E8                  JR   num1   
0BA3                NUM2:        
0BA3   0B                     DEC   bc   
0BA4   08                     EX   af,af'   ; restore zero flag
0BA5   20 07                  JR   nz,num3   
0BA7   EB                     EX   de,hl   ; negate the value of hl
0BA8   21 00 00               LD   hl,0   
0BAB   B7                     OR   a   ; jump to sub2
0BAC   ED 52                  SBC   hl,de   
0BAE                NUM3:        
0BAE   E5                     PUSH   hl   ; Put the number on the stack
0BAF   DD E9                  JP   (ix)   ; and process the next character
0BB1                             ; }                               58
0BB1                RBRACE:      
0BB1                BLOCKEND:      
0BB1   FD 5E 00               LD   e,(iy+0)   ; vTemp1 = oldBP
0BB4   FD 56 01               LD   d,(iy+1)   
0BB7   ED 53 04 56            LD   (vTemp1),de   
0BBB   FD 5E 06               LD   e,(iy+6)   ; vTemp2 = oldIP
0BBE   FD 56 07               LD   d,(iy+7)   
0BC1   ED 53 06 56            LD   (vTemp2),de   
0BC5   FD 5E 02               LD   e,(iy+2)   ; hl = first_arg*, is it in this scope?
0BC8   FD 56 03               LD   d,(iy+3)   
0BCB   EB                     EX   de,hl   
0BCC   FD 5E 00               LD   e,(iy+0)   ; de = oldBP
0BCF   FD 56 01               LD   d,(iy+1)   
0BD2   13                     INC   de   ; for carry flag <=
0BD3   B7                     OR   a   
0BD4   ED 52                  SBC   hl,de   
0BD6   38 0B                  JR   c,blockEnd1   ; oldBP >= first_arg, same scope skip
0BD8   FD 54                  LD   d,iyh   ; de = BP = first_result*, no args in this scope
0BDA   FD 5D                  LD   e,iyl   
0BDC   21 08 00               LD   hl,8   
0BDF   19                     ADD   hl,de   ; de = BP = first_result* (BP), hl = first_arg* (BP+8)
0BE0   EB                     EX   de,hl   ; de = first_arg*, hl = first_result*
0BE1   18 0C                  JR   blockEnd2   
0BE3                BLOCKEND1:      ; same scope
0BE3   FD 5E 02               LD   e,(iy+2)   ; hl = first_arg*, in scope
0BE6   FD 56 03               LD   d,(iy+3)   
0BE9   EB                     EX   de,hl   
0BEA   FD 54                  LD   d,iyh   ; de = first_arg*, hl = BP = first_result*
0BEC   FD 5D                  LD   e,iyl   
0BEE   EB                     EX   de,hl   
0BEF                BLOCKEND2:      
0BEF   44 4D                  LD   bc,hl   ; bc = hl = BP
0BF1   B7                     OR   a   ; hl = BP - SP = count
0BF2   ED 72                  SBC   hl,sp   
0BF4   7D                     LD   a,l   
0BF5   B4                     OR   h   
0BF6   28 09                  JR   z,blockEnd3   
0BF8   C5                     PUSH   bc   ; bc = count, hl = BP
0BF9   44 4D                  LD   bc,hl   
0BFB   E1                     POP   hl   
0BFC   2B                     DEC   hl   ; hl = BP-1
0BFD   1B                     DEC   de   ; de = args*-1
0BFE   ED B8                  LDDR      
0C00   13                     INC   de   
0C01                BLOCKEND3:      
0C01   EB                     EX   de,hl   ; sp = de = new tos*
0C02   F9                     LD   sp,hl   
0C03   ED 4B 06 56            LD   bc,(vTemp2)   
0C07   FD 2A 04 56            LD   iy,(vTemp1)   
0C0B   ED 5B EC 55            LD   de,(vRecurPtr)   ; de = recur vector
0C0F   7B                     LD   a,e   ; check for NUL
0C10   B2                     OR   d   
0C11   20 02                  JR   nz,blockEnd4   
0C13   DD E9                  JP   (ix)   
0C15                BLOCKEND4:      
0C15   21 00 00               LD   hl,0   ; clear recur vector
0C18   22 EC 55               LD   (vRecurPtr),hl   
0C1B   C3 A0 03               JP   go1   ; execute de
0C1E                GOBLOCK:      
0C1E   ED 53 04 56            LD   (vTemp1),de   ; save de
0C22   21 00 53               LD   hl,stack   ; de = BP, hl = stack, (sp) = code*
0C25   FD 54                  LD   d,iyh   
0C27   FD 5D                  LD   e,iyl   
0C29   B7                     OR   a   ; if stack* == BP then this is the root_scope
0C2A   ED 52                  SBC   hl,de   
0C2C   ED 5B 04 56            LD   de,(vTemp1)   ; restore de
0C30   7D                     LD   a,l   ; if (not root_scope) then inherit scope vars from parent
0C31   B4                     OR   h   
0C32   3E 00                  LD   a,0   
0C34   28 6A                  JR   z,goFunc8   
0C36   C5                     PUSH   bc   ; push IP
0C37   FD 4E 04               LD   c,(iy+4)   ; push arg_list* (parent)
0C3A   FD 46 05               LD   b,(iy+5)   
0C3D   FD 6E 02               LD   l,(iy+2)   ; push first_arg* (parent)
0C40   FD 66 03               LD   h,(iy+3)   
0C43                GOBLOCK2:      
0C43   C5                     PUSH   bc   ; arg_list*
0C44   E5                     PUSH   hl   ; first_arg*
0C45   FD E5                  PUSH   iy   ; push BP
0C47   FD 21 00 00            LD   iy,0   ; BP = SP
0C4B   FD 39                  ADD   iy,sp   
0C4D                GOBLOCK3:      
0C4D   42 4B                  LD   bc,de   ; bc = de = block*-1
0C4F   DD E9                  JP   (ix)   
0C51                GOFUNC:      ; execute func
0C51   EB                     EX   de,hl   ; hl = func*
0C52   5E                     LD   e,(hl)   ; de = partial_array*
0C53   23                     INC   hl   
0C54   56                     LD   d,(hl)   
0C55   23                     INC   hl   
0C56   7B                     LD   a,e   ; if partial_array* == null skip
0C57   B2                     OR   d   
0C58   28 21                  JR   z,goFunc3   
0C5A   ED 43 04 56            LD   (vTemp1),bc   
0C5E   22 06 56               LD   (vTemp2),hl   ; save bc,hl
0C61   EB                     EX   de,hl   ; hl = partial_array*
0C62   2B                     DEC   hl   ; bc = count
0C63   46                     LD   b,(hl)   
0C64   2B                     DEC   hl   
0C65   4E                     LD   c,(hl)   
0C66   23                     INC   hl   ; hl = array data*
0C67   23                     INC   hl   
0C68   18 06                  JR   goFunc2   ; push each item on stack
0C6A                GOFUNC1:      
0C6A   5E                     LD   e,(hl)   ; de = partial item
0C6B   23                     INC   hl   
0C6C   56                     LD   d,(hl)   
0C6D   23                     INC   hl   
0C6E   D5                     PUSH   de   ; push on stack
0C6F   0B                     DEC   bc   
0C70                GOFUNC2:      
0C70   79                     LD   a,c   ; if count != 0 then loop
0C71   B0                     OR   b   
0C72   20 F6                  JR   nz,goFunc1   
0C74   ED 4B 04 56            LD   bc,(vTemp1)   ; restore bc
0C78   2A 06 56               LD   hl,(vTemp2)   ; restore hl
0C7B                GOFUNC3:      
0C7B   5E                     LD   e,(hl)   ; de = block*
0C7C   23                     INC   hl   
0C7D   56                     LD   d,(hl)   
0C7E   23                     INC   hl   
0C7F   ED 53 04 56            LD   (vTemp1),de   ; save block*
0C83   5E                     LD   e,(hl)   ; de = arg_list*
0C84   23                     INC   hl   
0C85   56                     LD   d,(hl)   
0C86   23                     INC   hl   
0C87   EB                     EX   de,hl   ; hl = arg_list*
0C88   ED 5B 04 56            LD   de,(vTemp1)   ; restore de = block*
0C8C   7D                     LD   a,l   ; if arg_list* == null a = 0
0C8D   B4                     OR   h   
0C8E   20 03                  JR   nz,goFunc4   
0C90   AF                     XOR   a   ; a = num_args (zero), num_locals (zero)
0C91   18 0D                  JR   goFunc8   
0C93                GOFUNC4:      ; allocate locals
0C93   7E                     LD   a,(hl)   ; a = num_locals*, de = block* hl = arg_list*
0C94   18 03                  JR   goFunc6   
0C96                GOFUNC5:      ; loop
0C96   3B                     DEC   sp   
0C97   3B                     DEC   sp   
0C98   3D                     DEC   a   
0C99                GOFUNC6:      
0C99   B7                     OR   a   
0C9A   20 FA                  JR   nz,goFunc5   ; end loop
0C9C                GOFUNC7:      
0C9C   23                     INC   hl   ; a = num_args* x 2
0C9D   7E                     LD   a,(hl)   
0C9E   2B                     DEC   hl   
0C9F   87                     ADD   a,a   ; a *= 2
0CA0                GOFUNC8:      
0CA0   C5                     PUSH   bc   ; push IP, a = num_args* x 2, de = block*
0CA1   44 4D                  LD   bc,hl   
0CA3   21 02 00               LD   hl,2   ; hl = first_arg* (BP+8), a = num args offset
0CA6   85                     ADD   a,l   
0CA7   6F                     LD   l,a   
0CA8   39                     ADD   hl,sp   
0CA9   18 98                  JR   goBlock2   
0CAB                             ; =                              21
0CAB                             ; value _oldValue --            ; uses address in vPointer 15
0CAB                ASSIGN:      
0CAB   E1                     POP   hl   ; discard last accessed value
0CAC   E1                     POP   hl   ; hl = new value
0CAD                ASSIGN0:      
0CAD   EB                     EX   de,hl   ; de = new value
0CAE   2A F8 55               LD   hl,(vPointer)   
0CB1                ASSIGN1:      ; entry point from defineEnd
0CB1   73                     LD   (hl),e   
0CB2   3A EE 55               LD   a,(vDataWidth)   
0CB5   3D                     DEC   a   ; is it byte?
0CB6   28 02                  JR   z,assign2   
0CB8   23                     INC   hl   
0CB9   72                     LD   (hl),d   
0CBA                ASSIGN2:      
0CBA   DD E9                  JP   (ix)   
0CBC                             ; hl = value1, de = value2
0CBC                             ; hl = result
0CBC                EQUALS:      
0CBC   B7                     OR   a   ; reset the carry flag
0CBD   ED 52                  SBC   hl,de   ; only equality sets hl=0 here
0CBF   28 16                  JR   z,true1   
0CC1   18 1A                  JR   false1   
0CC3                NOTEQUALS:      
0CC3   B7                     OR   a   ; reset the carry flag
0CC4   ED 52                  SBC   hl,de   
0CC6   20 0F                  JR   nz,true1   
0CC8   18 13                  JR   false1   
0CCA                             ; hl = value1 de = value2
0CCA                             ; hl = result
0CCA                LESSTHANEQ:      
0CCA   B7                     OR   a   
0CCB   ED 52                  SBC   hl,de   
0CCD   18 05                  JR   lessthan1   
0CCF                             ; hl = value1 de = value2
0CCF                             ; hl = result
0CCF                LESSTHAN:      
0CCF   B7                     OR   a   
0CD0   ED 52                  SBC   hl,de   
0CD2   28 09                  JR   z,false1   
0CD4                LESSTHAN1:      
0CD4   FA DD 0C               JP   m,false1   
0CD7                TRUE1:       
0CD7   21 FF FF               LD   hl,TRUE   
0CDA   E5                     PUSH   hl   
0CDB   DD E9                  JP   (ix)   
0CDD                NULL1:       
0CDD                FALSE1:      
0CDD   21 00 00               LD   hl,FALSE   
0CE0   E5                     PUSH   hl   
0CE1   DD E9                  JP   (ix)   
0CE3                SPREAD:      
0CE3   E1                     POP   hl   ; hl = array*
0CE4   ED 43 04 56            LD   (vTemp1),bc   ; save bc
0CE8   2B                     DEC   hl   ; bc = length
0CE9   46                     LD   b,(hl)   
0CEA   2B                     DEC   hl   
0CEB   4E                     LD   c,(hl)   
0CEC   23                     INC   hl   ; move back to array 0
0CED   23                     INC   hl   
0CEE   18 0D                  JR   spread3   
0CF0                SPREAD1:      
0CF0   5E                     LD   e,(hl)   ; e = lsb data at hl
0CF1   23                     INC   hl   
0CF2   3A EE 55               LD   a,(vDataWidth)   ; data width = 1, d = 0, skip
0CF5   57                     LD   d,a   
0CF6   15                     DEC   d   
0CF7   28 02                  JR   z,spread2   
0CF9   56                     LD   d,(hl)   ; d = msb data at hl
0CFA   23                     INC   hl   
0CFB                SPREAD2:      
0CFB   D5                     PUSH   de   ; return de
0CFC   0B                     DEC   bc   ; count--
0CFD                SPREAD3:      
0CFD   79                     LD   a,c   ; exit loop if bc == 0
0CFE   B0                     OR   b   
0CFF   20 EF                  JR   nz,spread1   
0D01   ED 4B 04 56            LD   bc,(vTemp1)   ; restore bc
0D05   DD E9                  JP   (ix)   
0D07                             ; shiftLeft
0D07                             ; value count <<
0D07                             ; count variable <<=
0D07                SHIFTLEFT:      
0D07   E1                     POP   hl   ; de = arg_a, hl = arg_b
0D08   D1                     POP   de   
0D09   03                     INC   bc   
0D0A   0A                     LD   a,(bc)   
0D0B   FE 3D                  CP   "="   
0D0D   28 02                  JR   z,shiftLeft2   
0D0F   0B                     DEC   bc   
0D10   EB                     EX   de,hl   ; de = arg_b, hl = arg_a
0D11                SHIFTLEFT2:      
0D11   ED 43 04 56            LD   (vTemp1),bc   ; save IP
0D15   43                     LD   b,e   ; b = loop counter
0D16   04                     INC   b   ; test for counter=0 case
0D17   18 01                  JR   shiftLeft4   
0D19                SHIFTLEFT3:      
0D19   29                     ADD   hl,hl   ; left shift hl
0D1A                SHIFTLEFT4:      
0D1A   10 FD                  DJNZ   shiftLeft3   
0D1C   ED 4B 04 56            LD   bc,(vTemp1)   ; restore IP
0D20   C3 9D 02               JP   sub3   
0D23                             ; shiftRight
0D23                             ; value count >>
0D23                             ; count variable >>=
0D23                SHIFTRIGHT:      
0D23   E1                     POP   hl   ; de = arg_a, hl = arg_b
0D24   D1                     POP   de   
0D25   03                     INC   bc   
0D26   0A                     LD   a,(bc)   
0D27   FE 3D                  CP   "="   
0D29   28 02                  JR   z,shiftRight2   
0D2B   0B                     DEC   bc   
0D2C   EB                     EX   de,hl   ; de = arg_a, hl = arg_b
0D2D                SHIFTRIGHT2:      
0D2D   ED 43 04 56            LD   (vTemp1),bc   ; save IP
0D31   43                     LD   b,e   ; b = loop counter
0D32   04                     INC   b   ; test for counter=0 case
0D33   18 04                  JR   shiftRight4   
0D35                SHIFTRIGHT3:      
0D35   CB 3C                  SRL   h   ; right shift hl
0D37   CB 1D                  RR   l   
0D39                SHIFTRIGHT4:      
0D39   10 FA                  DJNZ   shiftRight3   
0D3B   ED 4B 04 56            LD   bc,(vTemp1)   ; restore IP
0D3F   C3 9D 02               JP   sub3   
0D42                             ; division subroutine.
0D42                             ; bc: divisor, de: dividend, hl: remainder
0D42                DIVIDE:      
0D42   21 00 00               LD   hl,0   ; zero the remainder
0D45   3E 10                  LD   a,16   ; loop counter
0D47                DIVIDE1:      ; shift the bits from bc (numerator) into hl (accumulator)
0D47   CB 21                  SLA   c   
0D49   CB 10                  RL   b   
0D4B   ED 6A                  ADC   hl,hl   
0D4D   ED 52                  SBC   hl,de   ; check if remainder >= denominator (hl>=de)
0D4F   38 03                  JR   c,divide2   
0D51   0C                     INC   c   
0D52   18 01                  JR   divide3   
0D54                DIVIDE2:      ; remainder is not >= denominator, so we have to add de back to hl
0D54   19                     ADD   hl,de   
0D55                DIVIDE3:      
0D55   3D                     DEC   a   
0D56   20 EF                  JR   nz,divide1   
0D58   50 59                  LD   de,bc   ; result from bc to de
0D5A   C9                     RET      
0D5B                DOTNEXT:      
0D5B   3A F2 55               LD   a,(vStrMode)   ; if string mode then exit
0D5E   3C                     INC   a   
0D5F   20 02                  JR   nz,dotNext1   
0D61   DD E9                  JP   (ix)   
0D63                DOTNEXT1:      
0D63   11 00 54               LD   de,BUFFER   
0D66   2A E8 55               LD   hl,(vBufPtr)   
0D69   36 00                  LD   (hl),0   ; store NUL at end of string
0D6B   ED 53 E8 55            LD   (vBufPtr),de   ; reset vBufPtr to vHeapPtr
0D6F   EB                     EX   de,hl   ; hl = BUFFER
0D70   CD 33 0F               CALL   putstr   
0D73   DD E9                  JP   (ix)   
0D75                             ; arg_list - parses arg_list e.g. ab:c
0D75                             ; -- arg_list*
0D75                PARSEARGS:      
0D75   11 00 00               LD   de,0   ; d = count locals, e = count args ()
0D78   2A EA 55               LD   hl,(vHeapPtr)   ; hl = heap*
0D7B   E5                     PUSH   hl   ; save start of arg_list
0D7C   23                     INC   hl   ; skip length fields to start of string
0D7D   23                     INC   hl   
0D7E   03                     INC   bc   ; point to next char
0D7F                PARSEARGS1:      
0D7F   0A                     LD   a,(bc)   
0D80   FE 3A                  CP   ":"   ; ":" switches from args to locals
0D82   20 03                  JR   nz,parseArgs1a   
0D84   14                     INC   d   ; non zero value local count acts as flag
0D85   18 10                  JR   parseArgs3   
0D87                PARSEARGS1A:      
0D87   FE 61                  CP   "a"   ; < "a" terminates arg_list
0D89   38 0F                  JR   c,parseArgs4   
0D8B   FE 7B                  CP   "z"+1   ; > "z" terminates arg_list
0D8D   30 0B                  JR   nc,parseArgs4   
0D8F                PARSEARGS2:      
0D8F   77                     LD   (hl),a   
0D90   23                     INC   hl   
0D91   1C                     INC   e   ; increase arg count
0D92   AF                     XOR   a   
0D93   B2                     OR   d   
0D94   28 01                  JR   z,parseArgs3   
0D96   14                     INC   d   ; if d > 0 increase local count
0D97                PARSEARGS3:      
0D97   03                     INC   bc   ; point to next char
0D98   18 E5                  JR   parseArgs1   
0D9A                PARSEARGS4:      
0D9A   0B                     DEC   bc   
0D9B   AF                     XOR   a   
0D9C   B2                     OR   d   
0D9D   28 01                  JR   z,parseArgs5   
0D9F   15                     DEC   d   ; remove initial inc
0DA0                PARSEARGS5:      
0DA0   23                     INC   hl   
0DA1   22 EA 55               LD   (vHeapPtr),hl   ; bump heap* to after end of string
0DA4   E1                     POP   hl   ; hl = start of arg_list
0DA5   72                     LD   (hl),d   ; write number of locals at start - 1
0DA6   23                     INC   hl   
0DA7   73                     LD   (hl),e   ; write number of args + locals at start - 2
0DA8   2B                     DEC   hl   
0DA9   E3                     EX   (sp),hl   
0DAA   E9                     JP   (hl)   
0DAB                             ; create block: parses block e.g. 00bbIC4uLi4g
0DAB                             ; -- block*
0DAB                PARSEBLOCK:      
0DAB   C5                     PUSH   bc   ; return pointer to first { of block
0DAC   03                     INC   bc   
0DAD   16 01                  LD   d,1   ; nesting: count first parenthesis
0DAF                PARSEBLOCK1:      ; Skip to end of definition
0DAF   0A                     LD   a,(bc)   ; Get the next character
0DB0   03                     INC   bc   ; Point to next character
0DB1   FE 21                  CP   " " + 1   ; ignore whitespace
0DB3   38 FA                  JR   c,parseBlock1   
0DB5   FE 29                  CP   ")"   
0DB7   28 2D                  JR   z,parseBlock4   
0DB9   FE 7D                  CP   "}"   
0DBB   28 29                  JR   z,parseBlock4   
0DBD   FE 5D                  CP   "]"   
0DBF   28 25                  JR   z,parseBlock4   
0DC1   FE 28                  CP   "("   
0DC3   28 16                  JR   z,parseBlock2   
0DC5   FE 7B                  CP   "{"   
0DC7   28 12                  JR   z,parseBlock2   
0DC9   FE 5B                  CP   "["   
0DCB   28 0E                  JR   z,parseBlock2   
0DCD   FE 27                  CP   "'"   
0DCF   28 0D                  JR   z,parseBlock3   
0DD1   FE 60                  CP   "`"   
0DD3   28 09                  JR   z,parseBlock3   
0DD5   FE 22                  CP   DQ   
0DD7   28 05                  JR   z,parseBlock3   
0DD9   18 D4                  JR   parseBlock1   
0DDB                PARSEBLOCK2:      
0DDB   14                     INC   d   
0DDC   18 D1                  JR   parseBlock1   
0DDE                PARSEBLOCK3:      
0DDE   3E 80                  LD   a,$80   
0DE0   AA                     XOR   d   
0DE1   57                     LD   d,a   
0DE2   20 CB                  JR   nz,parseBlock1   
0DE4   18 03                  JR   parseBlock5   
0DE6                PARSEBLOCK4:      
0DE6   15                     DEC   d   
0DE7   20 C6                  JR   nz,parseBlock1   ; get the next element
0DE9                PARSEBLOCK5:      
0DE9   60 69                  LD   hl,bc   ; hl = IP
0DEB   11 22 56               LD   de,HEAP   ; is IP pointing to object in heap
0DEE   B7                     OR   a   ; IP - HEAP
0DEF   ED 52                  SBC   hl,de   
0DF1   CB 7C                  BIT   7,h   ; if -ve then copy to heap else skip
0DF3   28 1C                  JR   z,parseBlock6   
0DF5   60 69                  LD   hl,bc   ; hl = IP
0DF7   D1                     POP   de   ; de = block*
0DF8   ED 43 04 56            LD   (vTemp1),bc   ; save IP
0DFC   B7                     OR   a   ; bc = size
0DFD   ED 52                  SBC   hl,de   
0DFF   44 4D                  LD   bc,hl   
0E01   EB                     EX   de,hl   ; hl = block* de = heap*
0E02   ED 5B EA 55            LD   de,(vHeapPtr)   
0E06   D5                     PUSH   de   ; return hblock*
0E07   ED B0                  LDIR      ; copy size bytes from block* to hblock*
0E09   ED 53 EA 55            LD   (vHeapPtr),de   ; heap* += size
0E0D   ED 4B 04 56            LD   bc,(vTemp1)   ; restore IP
0E11                PARSEBLOCK6:      
0E11   0B                     DEC   bc   ; balanced, exit
0E12   E1                     POP   hl   ; hl = block*
0E13   E3                     EX   (sp),hl   ; return to caller
0E14   E9                     JP   (hl)   
0E15                             ; create function
0E15                             ; arg_list* block* -- func*
0E15                CREATEFUNC:      
0E15   E1                     POP   hl   ; save retrn address
0E16   22 08 56               LD   (vTemp3),hl   
0E19   ED 43 04 56            LD   (vTemp1),bc   ; save IP
0E1D   E1                     POP   hl   ; hl = block*
0E1E   22 06 56               LD   (vTemp2),hl   ; save block*
0E21   FD 5E 04               LD   e,(iy+4)   ; de = outer_arg_list
0E24   FD 56 05               LD   d,(iy+5)   
0E27   7B                     LD   a,e   ; if arg_list == null then make a func
0E28   B2                     OR   d   
0E29   20 09                  JR   nz,createFunc0   
0E2B   21 00 00               LD   hl,0   ; partial_array = null
0E2E   ED 5B EA 55            LD   de,(vHeapPtr)   ; de = compile*
0E32   18 65                  JR   createFunc5   
0E34                CREATEFUNC0:      
0E34   E1                     POP   hl   ; hl = inner_arg_list*
0E35   E5                     PUSH   hl   ; save inner_arg_list
0E36   ED 5B EA 55            LD   de,(vHeapPtr)   ; de = compile*
0E3A   7E                     LD   a,(hl)   ; compile inner_num_locals
0E3B   4F                     LD   c,a   ; b = inner_num_locals
0E3C   12                     LD   (de),a   
0E3D   23                     INC   hl   
0E3E   13                     INC   de   
0E3F   7E                     LD   a,(hl)   ; compile inner_length
0E40   12                     LD   (de),a   
0E41   91                     SUB   c   ; a = inner_num args
0E42   23                     INC   hl   
0E43   13                     INC   de   
0E44   B7                     OR   a   ; compile args if inner_length > 0
0E45   28 05                  JR   z,createFunc1   
0E47   4F                     LD   c,a   ; bc = a
0E48   06 00                  LD   b,0   
0E4A   ED B0                  LDIR      
0E4C                CREATEFUNC1:      
0E4C   EB                     EX   de,hl   ; hl = outer_arg_list
0E4D   FD 5E 04               LD   e,(iy+4)   
0E50   FD 56 05               LD   d,(iy+5)   
0E53   EB                     EX   de,hl   
0E54   23                     INC   hl   ; a = outer_length
0E55   7E                     LD   a,(hl)   
0E56   23                     INC   hl   
0E57   B7                     OR   a   
0E58   28 05                  JR   z,createFunc2   
0E5A   4F                     LD   c,a   
0E5B   06 00                  LD   b,0   
0E5D   ED B0                  LDIR      ; append outer_args
0E5F                CREATEFUNC2:      ; a = outer_length
0E5F   47                     LD   b,a   ; b = a = outer_length
0E60   2A EA 55               LD   hl,(vHeapPtr)   ; b > 0, hl = start of cloned arg_list
0E63   23                     INC   hl   
0E64   7E                     LD   a,(hl)   ; add outer_length to new length
0E65   80                     ADD   a,b   
0E66   77                     LD   (hl),a   
0E67   2B                     DEC   hl   
0E68   78                     LD   a,b   ; save outer_length in a'
0E69   08                     EX   af,af'   
0E6A   E3                     EX   (sp),hl   ; hl = inner_arg_list*, (sp) new_arg_list
0E6B   7E                     LD   a,(hl)   ; c = a = inner_num_locals
0E6C   B7                     OR   a   
0E6D   28 0F                  JR   z,createFunc2a   ; if inner_num_locals == 0 skip
0E6F   4F                     LD   c,a   ; c = inner_num_locals
0E70   06 00                  LD   b,0   ; bc = inner_num_locals
0E72   23                     INC   hl   ; a = inner_length
0E73   7E                     LD   a,(hl)   
0E74   91                     SUB   c   ; a = inner_num_args
0E75   23                     INC   hl   ; hl = inner_arg_chars
0E76   85                     ADD   a,l   ; hl += a
0E77   6F                     LD   l,a   
0E78   3E 00                  LD   a,0   
0E7A   84                     ADD   a,h   
0E7B   67                     LD   h,a   
0E7C   ED B0                  LDIR      ; append inner_locals
0E7E                CREATEFUNC2A:      
0E7E   08                     EX   af,af'   ; restore outer_length to a, de = partial_array[-2]
0E7F   12                     LD   (de),a   ; compile partial_array length field
0E80   13                     INC   de   
0E81   AF                     XOR   a   
0E82   12                     LD   (de),a   
0E83   13                     INC   de   
0E84   D5                     PUSH   de   ; push partial_array*
0E85   EB                     EX   de,hl   ; hl = first_arg, copy outer_args+locals to partial_array
0E86   FD 5E 02               LD   e,(iy+2)   
0E89   FD 56 03               LD   d,(iy+3)   
0E8C   EB                     EX   de,hl   
0E8D                CREATEFUNC3:      
0E8D   2B                     DEC   hl   ; c = MSB of arg from stack (incl. locals)
0E8E   4E                     LD   c,(hl)   
0E8F   2B                     DEC   hl   
0E90   7E                     LD   a,(hl)   ; a = LSB of arg from stack (incl. locals)
0E91   12                     LD   (de),a   ; write LSB and MSB to partial_array*
0E92   13                     INC   de   
0E93   79                     LD   a,c   
0E94   12                     LD   (de),a   
0E95   13                     INC   de   
0E96   10 F5                  DJNZ   createFunc3   ; b = outer_length
0E98                CREATEFUNC4:      
0E98   E1                     POP   hl   ; hl = partial_array*
0E99                CREATEFUNC5:      
0E99   C1                     POP   bc   ; bc = new_arg_list*
0E9A   D5                     PUSH   de   ; return new func*
0E9B   EB                     EX   de,hl   ; hl = new func*, de = partial_array*
0E9C   73                     LD   (hl),e   ; compile partial_array* to func
0E9D   23                     INC   hl   
0E9E   72                     LD   (hl),d   
0E9F   23                     INC   hl   
0EA0   ED 5B 06 56            LD   de,(vTemp2)   ; de = block*
0EA4   73                     LD   (hl),e   ; compile block* to func
0EA5   23                     INC   hl   
0EA6   72                     LD   (hl),d   
0EA7   23                     INC   hl   
0EA8   71                     LD   (hl),c   ; compile new_arg_list* to func
0EA9   23                     INC   hl   
0EAA   70                     LD   (hl),b   
0EAB   23                     INC   hl   
0EAC   22 EA 55               LD   (vHeapPtr),hl   ; bump heap ptr
0EAF   ED 4B 04 56            LD   bc,(vTemp1)   ; restore IP
0EB3   2A 08 56               LD   hl,(vTemp3)   ; jump to return address
0EB6   E9                     JP   (hl)   
0EB7                             ;*******************************************************************
0EB7                             ; general routines
0EB7                             ;*******************************************************************
0EB7                             ; hl = address
0EB7                VARIABLE:      
0EB7   22 F8 55               LD   (vPointer),hl   
0EBA   5E                     LD   e,(hl)   
0EBB   3A EE 55               LD   a,(vDataWidth)   
0EBE   3D                     DEC   a   
0EBF   16 00                  LD   d,0   
0EC1   28 03                  JR   z,constant   
0EC3   23                     INC   hl   
0EC4   56                     LD   d,(hl)   
0EC5   2B                     DEC   hl   
0EC6                CONSTANT:      
0EC6   D5                     PUSH   de   
0EC7   DD E9                  JP   (ix)   
0EC9                             ; followed by a table
0EC9                             ; indexed on the 0-25 lowercase letter
0EC9                             ; db lsb(addr)
0EC9                             ; the final item index 26 matches any other char
0EC9                LOWERCASETABLE:      
0EC9   03                     INC   bc   
0ECA   0A                     LD   a,(bc)   
0ECB   FE 7B                  CP   "z"+1   
0ECD   30 0B                  JR   nc,lowerCaseTable2   
0ECF   D6 61                  SUB   "a"   
0ED1   38 07                  JR   c,lowerCaseTable2   
0ED3                LOWERCASETABLE1:      
0ED3   E1                     POP   hl   
0ED4   85                     ADD   a,l   
0ED5   6F                     LD   l,a   
0ED6   6E                     LD   l,(hl)   ; must have the same msb as the table
0ED7   C3 E0 0E               JP   commandTable1   
0EDA                LOWERCASETABLE2:      
0EDA   3E 1A                  LD   a,26   
0EDC   0B                     DEC   bc   
0EDD   18 F4                  JR   lowerCaseTable1   
0EDF                             ; followed by a table
0EDF                             ; db char
0EDF                             ; dw addr
0EDF                             ; the final item must have char == NUL
0EDF                COMMANDTABLE:      
0EDF   E1                     POP   hl   
0EE0                COMMANDTABLE1:      
0EE0   03                     INC   bc   
0EE1                COMMANDTABLE2:      
0EE1   AF                     XOR   a   
0EE2   BE                     CP   (hl)   
0EE3   20 03                  JR   nz,commandTable3   
0EE5   0B                     DEC   bc   
0EE6   18 09                  JR   commandTable4   
0EE8                COMMANDTABLE3:      
0EE8   0A                     LD   a,(bc)   
0EE9   BE                     CP   (hl)   
0EEA   28 05                  JR   z,commandTable4   
0EEC   23                     INC   hl   
0EED   23                     INC   hl   
0EEE   23                     INC   hl   
0EEF   18 F0                  JR   commandTable2   
0EF1                COMMANDTABLE4:      
0EF1   23                     INC   hl   
0EF2   5E                     LD   e,(hl)   
0EF3   23                     INC   hl   
0EF4   56                     LD   d,(hl)   
0EF5   EB                     EX   de,hl   
0EF6   E9                     JP   (hl)   
0EF7                             ; followed by a table
0EF7                             ; db char
0EF7                             ; db char - if null only match on first char
0EF7                             ; dw addr
0EF7                             ; the final item must have char == NUL
0EF7                CMDTABLE:      
0EF7   E1                     POP   hl   
0EF8                CMDTABLE1:      
0EF8                CMDTABLE2:      
0EF8   56                     LD   d,(hl)   
0EF9   23                     INC   hl   
0EFA   5E                     LD   e,(hl)   
0EFB   23                     INC   hl   
0EFC   AF                     XOR   a   ; if d == 0, matched
0EFD   BA                     CP   d   
0EFE   28 13                  JR   z,cmdTable5   
0F00   03                     INC   bc   ; match?
0F01   0A                     LD   a,(bc)   
0F02   BA                     CP   d   
0F03   20 09                  JR   nz,cmdTable4   
0F05                CMDTABLE3:      
0F05   AF                     XOR   a   ; if e == 0, matched
0F06   BB                     CP   e   
0F07   28 0A                  JR   z,cmdTable5   
0F09   03                     INC   bc   
0F0A   0A                     LD   a,(bc)   ; match?
0F0B   BB                     CP   e   
0F0C   28 05                  JR   z,cmdTable5   
0F0E                CMDTABLE4:      ; no match, restore bc, go to next table entry
0F0E   0B                     DEC   bc   
0F0F   23                     INC   hl   
0F10   23                     INC   hl   
0F11   18 E5                  JR   cmdTable2   
0F13                CMDTABLE5:      ; matched, jump to addr
0F13   5E                     LD   e,(hl)   
0F14   23                     INC   hl   
0F15   56                     LD   d,(hl)   
0F16   EB                     EX   de,hl   
0F17   E9                     JP   (hl)   
0F18                GETVARADDR:      
0F18   21 00 00               LD   hl,0   
0F1B   FE 7B                  CP   "z"+1   ; if a > z then exit
0F1D   D0                     RET   nc   
0F1E   D6 41                  SUB   "A"   ; a - 65
0F20   D8                     RET   c   ; if < A then exit
0F21   FE 1A                  CP   "Z"+1-"A"   ; if > Z then subtract 7
0F23   38 05                  JR   c,getVarAddr1   
0F25   D6 06                  SUB   "a"-("Z"+1)   
0F27   FE 1A                  CP   "Z"-"A"+1   
0F29   D8                     RET   c   ; if < a then exit
0F2A                GETVARADDR1:      
0F2A   87                     ADD   a,a   ; double a
0F2B   6F                     LD   l,a   
0F2C   26 55                  LD   h,msb(VARS)   
0F2E   C9                     RET      
0F2F                PUTSTR0:      
0F2F   CD 85 00               CALL   putchar   
0F32   23                     INC   hl   
0F33                PUTSTR:      
0F33   7E                     LD   a,(hl)   
0F34   B7                     OR   a   
0F35   20 F8                  JR   nz,putstr0   
0F37   C9                     RET      
0F38                             ; **************************************************************************
0F38                             ; calculate nesting value
0F38                             ; a is char to be tested,
0F38                             ; e is the nesting value (initially 0)
0F38                             ; e is increased by ( and [
0F38                             ; e is decreased by ) and ]
0F38                             ; e has its bit 7 toggled by `
0F38                             ; limited to 127 levels
0F38                             ; **************************************************************************
0F38                NESTING:      
0F38   FE 22                  CP   DQ   ; quote char
0F3A   28 06                  JR   z,nesting0   
0F3C   FE 60                  CP   "`"   ; quote char
0F3E   28 02                  JR   z,nesting0   
0F40   18 0A                  JR   nesting1   
0F42                NESTING0:      
0F42   CB 7B                  BIT   7,e   
0F44   28 03                  JR   z,nesting1a   
0F46   CB BB                  RES   7,e   
0F48   C9                     RET      
0F49                NESTING1A:      
0F49   CB FB                  SET   7,e   
0F4B   C9                     RET      
0F4C                NESTING1:      
0F4C   CB 7B                  BIT   7,e   
0F4E   C0                     RET   nz   
0F4F   FE 7B                  CP   "{"   
0F51   28 08                  JR   z,nesting2   
0F53   FE 5B                  CP   "["   
0F55   28 04                  JR   z,nesting2   
0F57   FE 28                  CP   "("   
0F59   20 02                  JR   nz,nesting3   
0F5B                NESTING2:      
0F5B   1C                     INC   e   
0F5C   C9                     RET      
0F5D                NESTING3:      
0F5D   FE 7D                  CP   "}"   
0F5F   28 07                  JR   z,nesting4   
0F61   FE 5D                  CP   "]"   
0F63   28 03                  JR   z,nesting4   
0F65   FE 29                  CP   ")"   
0F67   C0                     RET   nz   
0F68                NESTING4:      
0F68   1D                     DEC   e   
0F69   C9                     RET      
0F6A                PROMPT:      
0F6A   CD 7A 0F               CALL   printStr   
0F6D   0D 0A 3E 20 00         .CSTR   "\r\n> "   
0F72   C9                     RET      
0F73                CRLF:        
0F73   CD 7A 0F               CALL   printStr   
0F76   0D 0A 00               .CSTR   "\r\n"   
0F79   C9                     RET      
0F7A                             ; prints a null teminated string
0F7A                             ; the string should be immediately following the call
0F7A                PRINTSTR:      
0F7A   E3                     EX   (sp),hl   ; swap			
0F7B   CD 33 0F               CALL   putstr   
0F7E   23                     INC   hl   ; inc past NUL
0F7F   E3                     EX   (sp),hl   ; put it back	
0F80   C9                     RET      
0F81                INIT:        
0F81   21 F0 01               LD   hl,titleStr   
0F84   11 0E 56               LD   de,titleBuf   
0F87   06 14                  LD   b,20   
0F89                INIT1:       
0F89   1A                     LD   a,(de)   
0F8A   BE                     CP   (hl)   
0F8B   20 17                  JR   nz,coldBoot0   
0F8D   13                     INC   de   
0F8E   23                     INC   hl   
0F8F   10 F8                  DJNZ   init1   
0F91                WARMINIT:      
0F91   ED 4B FC 55            LD   bc,(vSavedIP)   ; restore IP
0F95   ED 7B FE 55            LD   sp,(vSavedSP)   ; restore SP
0F99   DD 2A 00 56            LD   ix,(vSavedNext)   ; restore Next
0F9D   FD 2A 02 56            LD   iy,(vSavedBP)   ; restore BP
0FA1   C3 DB 0F               JP   start1   
0FA4                COLDBOOT0:      
0FA4   21 F0 01               LD   hl,titleStr   ; copy titleStr to titleBuf
0FA7   11 0E 56               LD   de,titleBuf   
0FAA   06 14                  LD   b,20   
0FAC   ED B0                  LDIR      
0FAE                COLDINIT:      
0FAE   21 DE 01               LD   hl,isysVars   
0FB1   11 E6 55               LD   de,sysVars   
0FB4   01 12 00               LD   bc,4 * 2 + 10   
0FB7   ED B0                  LDIR      
0FB9   21 00 55               LD   hl,vars   ; 52 vars LO HI
0FBC   06 34                  LD   b,26*2   
0FBE   AF                     XOR   a   
0FBF                COLDBOOT1:      
0FBF   77                     LD   (hl),a   
0FC0   23                     INC   hl   
0FC1   10 FC                  DJNZ   coldBoot1   
0FC3   DD 21 57 10            LD   ix,NEXT   
0FC7   FD 21 00 53            LD   iy,STACK   
0FCB   C9                     RET      
0FCC                COLDSTART:      
0FCC   31 00 53               LD   sp,STACK   
0FCF   CD A4 0F               CALL   coldBoot0   
0FD2   C3 DB 0F               JP   start1   
0FD5                START:       
0FD5   31 00 53               LD   sp,STACK   ; start Monty
0FD8   CD 81 0F               CALL   init   ; setups
0FDB                START1:      
0FDB   21 0E 56               LD   hl,titleBuf   
0FDE   CD 33 0F               CALL   putstr   ; prog count to stack, put code line 235 on stack then call print
0FE1                INTERPRET:      
0FE1   CD 6A 0F               CALL   prompt   
0FE4   01 00 00               LD   bc,0   ; load TIB length, decide char into tib or execute or control
0FE7   21 00 53               LD   hl,TIB   
0FEA   22 E6 55               LD   (vTIBPtr),hl   ; no chars in TIB so set end pointer to beginning
0FED                INTERPRET2:      ; calculate nesting
0FED   1E 00                  LD   e,0   ; initilize nesting value
0FEF   C5                     PUSH   bc   ; save offset into TIB,
0FF0                             ; bc is also the count of chars in TIB
0FF0   21 00 53               LD   hl,TIB   ; hl is start of TIB
0FF3   18 06                  JR   interpret4   
0FF5                INTERPRET3:      
0FF5   7E                     LD   a,(hl)   ; a = char in TIB
0FF6   23                     INC   hl   ; inc pointer into TIB
0FF7   0B                     DEC   bc   ; dec count of chars in TIB
0FF8   CD 38 0F               CALL   nesting   ; update nesting value
0FFB                INTERPRET4:      
0FFB   79                     LD   a,c   ; is count zero?
0FFC   B0                     OR   b   
0FFD   20 F6                  JR   nz,interpret3   ; if not loop
0FFF   C1                     POP   bc   ; restore offset into TIB
1000                INTERPRET5:      
1000   CD 81 00               CALL   getchar   ; loop around waiting for character from serial port
1003   FE 20                  CP   $20   ; compare to space
1005   30 14                  JR   nc,interpret6   ; if >= space, if below 20 set cary flag
1007   FE 00                  CP   NUL   ; is it end of string? NUL end of string
1009   28 31                  JR   z,interpret8   
100B   FE 0D                  CP   "\r"   ; carriage return? ascii 13
100D   28 1A                  JR   z,interpret7   ; if anything else its macro/control
100F   FE 08                  CP   CTRL_H   
1011   CA 8D 10               JP   z,backSpace_   
1014   FE 0A                  CP   CTRL_J   
1016   CA 9D 10               JP   z,reEdit_   
1019                INTERPRET5A:      
1019   18 D2                  JR   interpret2   
101B                INTERPRET6:      
101B   21 00 53               LD   hl,TIB   
101E   09                     ADD   hl,bc   
101F   77                     LD   (hl),a   ; store the character in textbuf
1020   03                     INC   bc   
1021   CD 85 00               CALL   putchar   ; echo character to screen
1024   CD 38 0F               CALL   nesting   
1027   18 D7                  JR   interpret5   ; wait for next character
1029                INTERPRET7:      
1029   21 00 53               LD   hl,TIB   
102C   09                     ADD   hl,bc   
102D   36 0D                  LD   (hl),"\r"   ; store the crlf in textbuf
102F   23                     INC   hl   
1030   36 0A                  LD   (hl),"\n"   
1032   23                     INC   hl   
1033   03                     INC   bc   
1034   03                     INC   bc   
1035   CD 73 0F               CALL   crlf   ; echo character to screen
1038   7B                     LD   a,e   ; if zero nesting append and ETX after \r
1039   B7                     OR   a   
103A   20 C4                  JR   nz,interpret5   
103C                INTERPRET8:      
103C   21 00 53               LD   hl,TIB   
103F   09                     ADD   hl,bc   
1040   22 E6 55               LD   (vTIBPtr),hl   
1043   01 00 53               LD   bc,TIB   
1046   ED 43 FC 55            LD   (vSavedIP),bc   ; save IP
104A   ED 73 FE 55            LD   (vSavedSP),sp   ; save SP
104E   DD 22 00 56            LD   (vSavedNext),ix   ; save Next
1052   FD 22 02 56            LD   (vSavedBP),iy   ; save BP
1056   0B                     DEC   bc   
1057                NEXT:        
1057   03                     INC   bc   ; Increment the IP
1058   0A                     LD   a,(bc)   ; Get the next character and dispatch
1059   FE 20                  CP   " "   ; whitespace?
105B   28 FA                  JR   z,next   ; space? ignore
105D   38 0D                  JR   c,next1   
105F   C6 5F                  ADD   a,$80 - "!"   ; subtract "!", add $80 (opcodes lsb starts at $80)
1061   6F                     LD   l,a   ; index into table
1062   26 01                  LD   h,msb(opcodes)   ; start address of jump table
1064   6E                     LD   l,(hl)   ; get low jump address
1065   24                     INC   h   ; page 2
1066   FE BA                  CP   "Z" - "!" + 1 + $80   
1068   38 01                  JR   c,next0   
106A   24                     INC   h   ; page 3
106B                NEXT0:       
106B   E9                     JP   (hl)   ; Jump to routine
106C                NEXT1:       
106C   FE 00                  CP   NUL   ; end of input string?
106E   28 03                  JR   z,exit   
1070   C3 E1 0F               JP   interpret   ; no, other whitespace, macros?
1073                EXIT:        
1073   03                     INC   bc   
1074   60 69                  LD   hl,bc   
1076   E9                     JP   (hl)   
1077                RUN:         
1077   C1                     POP   bc   
1078   0B                     DEC   bc   
1079   DD E9                  JP   (ix)   
107B                ERROR:       
107B   E5                     PUSH   hl   
107C   CD 77 10               CALL   run   
107F   60 45 72 72 6F 72 20 60 20 2E 00 DB   "`Error ` .",0   
108A   C3 E1 0F               JP   interpret   
108D                BACKSPACE_:      
108D   79                     LD   a,c   
108E   B0                     OR   b   
108F   CA ED 0F               JP   z,interpret2   
1092   0B                     DEC   bc   
1093   CD 7A 0F               CALL   printStr   
1096   08 20 08 00            .CSTR   "\b \b"   
109A   C3 ED 0F               JP   interpret2   
109D                REEDIT_:      
109D   CD 7A 0F               CALL   printStr   
10A0   0D 3E 20 00            .CSTR   "\r> "   
10A4   21 00 53               LD   hl,TIB   
10A7   18 04                  JR   reEdit1   
10A9                REEDIT0:      
10A9   CD 85 00               CALL   putchar   
10AC   23                     INC   hl   
10AD                REEDIT1:      
10AD   7E                     LD   a,(hl)   
10AE   FE 0D                  CP   "\r"   
10B0   20 F7                  JR   nz,reEdit0   
10B2   11 00 53               LD   de,TIB   
10B5   B7                     OR   a   
10B6   ED 52                  SBC   hl,de   
10B8   44 4D                  LD   bc,hl   
10BA   C3 ED 0F               JP   interpret2   
10BD                          ;*Macro unroll: FUNC f1, 0, ""
10BD                F1:          
10BD   CD 9F 03               CALL   go   
10C0   00 00                  DW   NUL   
10C2   C8 10                  DW   f1M_2985S12   
10C4   C6 10                  DW   $+2   
10C6   00                     DB   0   
10C7   00                     .PSTR   ""   
10C8                F1M_2985S12:      
10C8   00                     DB   0   
10C9                          ;*Macro unroll: FUNC f2, 0, ""
10C9                F2:          
10C9   CD 9F 03               CALL   go   
10CC   00 00                  DW   NUL   
10CE   D4 10                  DW   f2M_2987S15   
10D0   D2 10                  DW   $+2   
10D2   00                     DB   0   
10D3   00                     .PSTR   ""   
10D4                F2M_2987S15:      
10D4   00                     DB   0   
10D5                          ;*Macro unroll: FUNC f3, 0, ""
10D5                F3:          
10D5   CD 9F 03               CALL   go   
10D8   00 00                  DW   NUL   
10DA   E0 10                  DW   f3M_2989S18   
10DC   DE 10                  DW   $+2   
10DE   00                     DB   0   
10DF   00                     .PSTR   ""   
10E0                F3M_2989S18:      
10E0   00                     DB   0   
10E1                          ;*Macro unroll: FUNC f4, 0, ""
10E1                F4:          
10E1   CD 9F 03               CALL   go   
10E4   00 00                  DW   NUL   
10E6   EC 10                  DW   f4M_2991S21   
10E8   EA 10                  DW   $+2   
10EA   00                     DB   0   
10EB   00                     .PSTR   ""   
10EC                F4M_2991S21:      
10EC   00                     DB   0   
10ED                          ALIGN   $100   
1100                TESTSSTART:      
1100                          ;*Macro unroll:  test "0 10 1 /rg \\a{%a.} /fe", 0
1100   31 00 53               LD   SP,STACK   
1103   CD AE 0F               CALL   coldInit   
1106   CD CC 51               CALL   execStr   
1109   30 20 31 30 20 31 20 2F 72 67 20 5C 61 7B 25 61 2E 7D 20 2F 66 65 00 DB   "0 10 1 /rg \\a{%a.} /fe",0   
1120   E1                     POP   HL   
1121   E5                     PUSH   HL   
1122   11 00 00               LD   DE,0   
1125   B7                     OR   A   
1126   ED 52                  SBC   HL,DE   
1128   7D                     LD   A,L   
1129   B4                     OR   H   
112A   CA 90 11               JP   Z,expectM_2995S27   
112D   CD 7A 0F               CALL   printStr   
1130   43 6F 64 65 3A 20 30 20 31 30 20 31 20 2F 72 67 20 5C 61 7B 25 61 2E 7D 20 2F 66 65 00 .CSTR   "Code: ","0 10 1 /rg \\a{%a.} /fe"   
114D   CD 7A 0F               CALL   printStr   
1150   0D 0A 0D 0A 45 78 70 65 63 74 65 64 3A 20 00 .CSTR   "\r\n\r\nExpected: "   
115F   21 00 00               LD   hl,0   
1162   E5                     PUSH   hl   
1163   E5                     PUSH   hl   
1164   CD 77 10               CALL   run   
1167   2E 60 24 60 2E 68 00   .CSTR   ".`$`.h"   
116E   CD 7A 0F               CALL   printStr   
1171   0D 0A 0D 0A 41 63 74 75 61 6C 3A 20 00 .CSTR   "\r\n\r\nActual: "   
117E   E1                     POP   hl   
117F   E5                     PUSH   hl   
1180   E5                     PUSH   hl   
1181   CD 77 10               CALL   run   
1184   2E 60 24 60 2E 68 60 0D 0A 60 00 .CSTR   ".`$`.h`\r\n`"   
118F   76                     HALT      
1190                EXPECTM_2995S27:      
1190   E1                     POP   HL   
1191                             ; test "0 10 1 /rg \\a{%a 1 + 10 *} /mp \\a{%a.} /fe", 0
1191                             ; test "0 10 1 /rg \\a{%a 3<}/ft \\a{%a.} /fe", 0
1191                             ; test "0 10 1 /rg  0 \\da{%d%a+}/fd \\a{%a 24<}/ft \\a{%a.} /fe", 0
1191                             ; test "[10 20 30] /ai \\a{%a.} /fe", 0
1191                             ; test "[1 2 3].a", 0
1191                             ; test "/sb `hello:` 65.c 1. 2. 3. /se .s", FALSE
1191                             ; test "`hello:` 65.c 1. 2. 3.", FALSE
1191                             ; test "/hx/bm$1234.",0
1191                             ; test "/bm257.",0
1191                             ; test "$1000 'hello there!' /si \\a{%a.c} /fe", $1000
1191                             ; test "10 0 -1 /rg \\a{%a.} /fe", 0
1191                             ; test "0 10 1 /f1 \\a{%a.} /fe", 0
1191                             ; test "0 x = 2 x + = x .", false
1191                             ; test "3 1 <<", 6
1191                             ; test "10 1 >>", 5
1191                             ; test "3x= 1 x <<= x", 6
1191                             ; test "10x= 1 x >>= x", 5
1191                             ; call printStr
1191                             ; .cstr "Done!"
1191                             ; HALT
1191                          ;*Macro unroll:  test "/f", false
1191   31 00 53               LD   SP,STACK   
1194   CD AE 0F               CALL   coldInit   
1197   CD CC 51               CALL   execStr   
119A   2F 66 00               DB   "/f",0   
119D   E1                     POP   HL   
119E   E5                     PUSH   HL   
119F   11 00 00               LD   DE,false   
11A2   B7                     OR   A   
11A3   ED 52                  SBC   HL,DE   
11A5   7D                     LD   A,L   
11A6   B4                     OR   H   
11A7   CA F9 11               JP   Z,expectM_3016S53   
11AA   CD 7A 0F               CALL   printStr   
11AD   43 6F 64 65 3A 20 2F 66 00 .CSTR   "Code: ","/f"   
11B6   CD 7A 0F               CALL   printStr   
11B9   0D 0A 0D 0A 45 78 70 65 63 74 65 64 3A 20 00 .CSTR   "\r\n\r\nExpected: "   
11C8   21 00 00               LD   hl,false   
11CB   E5                     PUSH   hl   
11CC   E5                     PUSH   hl   
11CD   CD 77 10               CALL   run   
11D0   2E 60 24 60 2E 68 00   .CSTR   ".`$`.h"   
11D7   CD 7A 0F               CALL   printStr   
11DA   0D 0A 0D 0A 41 63 74 75 61 6C 3A 20 00 .CSTR   "\r\n\r\nActual: "   
11E7   E1                     POP   hl   
11E8   E5                     PUSH   hl   
11E9   E5                     PUSH   hl   
11EA   CD 77 10               CALL   run   
11ED   2E 60 24 60 2E 68 60 0D 0A 60 00 .CSTR   ".`$`.h`\r\n`"   
11F8   76                     HALT      
11F9                EXPECTM_3016S53:      
11F9   E1                     POP   HL   
11FA                          ;*Macro unroll:  test "/t", true
11FA   31 00 53               LD   SP,STACK   
11FD   CD AE 0F               CALL   coldInit   
1200   CD CC 51               CALL   execStr   
1203   2F 74 00               DB   "/t",0   
1206   E1                     POP   HL   
1207   E5                     PUSH   HL   
1208   11 FF FF               LD   DE,true   
120B   B7                     OR   A   
120C   ED 52                  SBC   HL,DE   
120E   7D                     LD   A,L   
120F   B4                     OR   H   
1210   CA 62 12               JP   Z,expectM_3017S54   
1213   CD 7A 0F               CALL   printStr   
1216   43 6F 64 65 3A 20 2F 74 00 .CSTR   "Code: ","/t"   
121F   CD 7A 0F               CALL   printStr   
1222   0D 0A 0D 0A 45 78 70 65 63 74 65 64 3A 20 00 .CSTR   "\r\n\r\nExpected: "   
1231   21 FF FF               LD   hl,true   
1234   E5                     PUSH   hl   
1235   E5                     PUSH   hl   
1236   CD 77 10               CALL   run   
1239   2E 60 24 60 2E 68 00   .CSTR   ".`$`.h"   
1240   CD 7A 0F               CALL   printStr   
1243   0D 0A 0D 0A 41 63 74 75 61 6C 3A 20 00 .CSTR   "\r\n\r\nActual: "   
1250   E1                     POP   hl   
1251   E5                     PUSH   hl   
1252   E5                     PUSH   hl   
1253   CD 77 10               CALL   run   
1256   2E 60 24 60 2E 68 60 0D 0A 60 00 .CSTR   ".`$`.h`\r\n`"   
1261   76                     HALT      
1262                EXPECTM_3017S54:      
1262   E1                     POP   HL   
1263                          ;*Macro unroll:  test "1", 1
1263   31 00 53               LD   SP,STACK   
1266   CD AE 0F               CALL   coldInit   
1269   CD CC 51               CALL   execStr   
126C   31 00                  DB   "1",0   
126E   E1                     POP   HL   
126F   E5                     PUSH   HL   
1270   11 01 00               LD   DE,1   
1273   B7                     OR   A   
1274   ED 52                  SBC   HL,DE   
1276   7D                     LD   A,L   
1277   B4                     OR   H   
1278   CA C9 12               JP   Z,expectM_3018S55   
127B   CD 7A 0F               CALL   printStr   
127E   43 6F 64 65 3A 20 31 00 .CSTR   "Code: ","1"   
1286   CD 7A 0F               CALL   printStr   
1289   0D 0A 0D 0A 45 78 70 65 63 74 65 64 3A 20 00 .CSTR   "\r\n\r\nExpected: "   
1298   21 01 00               LD   hl,1   
129B   E5                     PUSH   hl   
129C   E5                     PUSH   hl   
129D   CD 77 10               CALL   run   
12A0   2E 60 24 60 2E 68 00   .CSTR   ".`$`.h"   
12A7   CD 7A 0F               CALL   printStr   
12AA   0D 0A 0D 0A 41 63 74 75 61 6C 3A 20 00 .CSTR   "\r\n\r\nActual: "   
12B7   E1                     POP   hl   
12B8   E5                     PUSH   hl   
12B9   E5                     PUSH   hl   
12BA   CD 77 10               CALL   run   
12BD   2E 60 24 60 2E 68 60 0D 0A 60 00 .CSTR   ".`$`.h`\r\n`"   
12C8   76                     HALT      
12C9                EXPECTM_3018S55:      
12C9   E1                     POP   HL   
12CA                          ;*Macro unroll:  test "2", 2
12CA   31 00 53               LD   SP,STACK   
12CD   CD AE 0F               CALL   coldInit   
12D0   CD CC 51               CALL   execStr   
12D3   32 00                  DB   "2",0   
12D5   E1                     POP   HL   
12D6   E5                     PUSH   HL   
12D7   11 02 00               LD   DE,2   
12DA   B7                     OR   A   
12DB   ED 52                  SBC   HL,DE   
12DD   7D                     LD   A,L   
12DE   B4                     OR   H   
12DF   CA 30 13               JP   Z,expectM_3019S56   
12E2   CD 7A 0F               CALL   printStr   
12E5   43 6F 64 65 3A 20 32 00 .CSTR   "Code: ","2"   
12ED   CD 7A 0F               CALL   printStr   
12F0   0D 0A 0D 0A 45 78 70 65 63 74 65 64 3A 20 00 .CSTR   "\r\n\r\nExpected: "   
12FF   21 02 00               LD   hl,2   
1302   E5                     PUSH   hl   
1303   E5                     PUSH   hl   
1304   CD 77 10               CALL   run   
1307   2E 60 24 60 2E 68 00   .CSTR   ".`$`.h"   
130E   CD 7A 0F               CALL   printStr   
1311   0D 0A 0D 0A 41 63 74 75 61 6C 3A 20 00 .CSTR   "\r\n\r\nActual: "   
131E   E1                     POP   hl   
131F   E5                     PUSH   hl   
1320   E5                     PUSH   hl   
1321   CD 77 10               CALL   run   
1324   2E 60 24 60 2E 68 60 0D 0A 60 00 .CSTR   ".`$`.h`\r\n`"   
132F   76                     HALT      
1330                EXPECTM_3019S56:      
1330   E1                     POP   HL   
1331                          ;*Macro unroll:  test "1", 1
1331   31 00 53               LD   SP,STACK   
1334   CD AE 0F               CALL   coldInit   
1337   CD CC 51               CALL   execStr   
133A   31 00                  DB   "1",0   
133C   E1                     POP   HL   
133D   E5                     PUSH   HL   
133E   11 01 00               LD   DE,1   
1341   B7                     OR   A   
1342   ED 52                  SBC   HL,DE   
1344   7D                     LD   A,L   
1345   B4                     OR   H   
1346   CA 97 13               JP   Z,expectM_3020S57   
1349   CD 7A 0F               CALL   printStr   
134C   43 6F 64 65 3A 20 31 00 .CSTR   "Code: ","1"   
1354   CD 7A 0F               CALL   printStr   
1357   0D 0A 0D 0A 45 78 70 65 63 74 65 64 3A 20 00 .CSTR   "\r\n\r\nExpected: "   
1366   21 01 00               LD   hl,1   
1369   E5                     PUSH   hl   
136A   E5                     PUSH   hl   
136B   CD 77 10               CALL   run   
136E   2E 60 24 60 2E 68 00   .CSTR   ".`$`.h"   
1375   CD 7A 0F               CALL   printStr   
1378   0D 0A 0D 0A 41 63 74 75 61 6C 3A 20 00 .CSTR   "\r\n\r\nActual: "   
1385   E1                     POP   hl   
1386   E5                     PUSH   hl   
1387   E5                     PUSH   hl   
1388   CD 77 10               CALL   run   
138B   2E 60 24 60 2E 68 60 0D 0A 60 00 .CSTR   ".`$`.h`\r\n`"   
1396   76                     HALT      
1397                EXPECTM_3020S57:      
1397   E1                     POP   HL   
1398                          ;*Macro unroll:  test "0", 0
1398   31 00 53               LD   SP,STACK   
139B   CD AE 0F               CALL   coldInit   
139E   CD CC 51               CALL   execStr   
13A1   30 00                  DB   "0",0   
13A3   E1                     POP   HL   
13A4   E5                     PUSH   HL   
13A5   11 00 00               LD   DE,0   
13A8   B7                     OR   A   
13A9   ED 52                  SBC   HL,DE   
13AB   7D                     LD   A,L   
13AC   B4                     OR   H   
13AD   CA FE 13               JP   Z,expectM_3021S58   
13B0   CD 7A 0F               CALL   printStr   
13B3   43 6F 64 65 3A 20 30 00 .CSTR   "Code: ","0"   
13BB   CD 7A 0F               CALL   printStr   
13BE   0D 0A 0D 0A 45 78 70 65 63 74 65 64 3A 20 00 .CSTR   "\r\n\r\nExpected: "   
13CD   21 00 00               LD   hl,0   
13D0   E5                     PUSH   hl   
13D1   E5                     PUSH   hl   
13D2   CD 77 10               CALL   run   
13D5   2E 60 24 60 2E 68 00   .CSTR   ".`$`.h"   
13DC   CD 7A 0F               CALL   printStr   
13DF   0D 0A 0D 0A 41 63 74 75 61 6C 3A 20 00 .CSTR   "\r\n\r\nActual: "   
13EC   E1                     POP   hl   
13ED   E5                     PUSH   hl   
13EE   E5                     PUSH   hl   
13EF   CD 77 10               CALL   run   
13F2   2E 60 24 60 2E 68 60 0D 0A 60 00 .CSTR   ".`$`.h`\r\n`"   
13FD   76                     HALT      
13FE                EXPECTM_3021S58:      
13FE   E1                     POP   HL   
13FF                          ;*Macro unroll:  test "10", 10
13FF   31 00 53               LD   SP,STACK   
1402   CD AE 0F               CALL   coldInit   
1405   CD CC 51               CALL   execStr   
1408   31 30 00               DB   "10",0   
140B   E1                     POP   HL   
140C   E5                     PUSH   HL   
140D   11 0A 00               LD   DE,10   
1410   B7                     OR   A   
1411   ED 52                  SBC   HL,DE   
1413   7D                     LD   A,L   
1414   B4                     OR   H   
1415   CA 67 14               JP   Z,expectM_3022S59   
1418   CD 7A 0F               CALL   printStr   
141B   43 6F 64 65 3A 20 31 30 00 .CSTR   "Code: ","10"   
1424   CD 7A 0F               CALL   printStr   
1427   0D 0A 0D 0A 45 78 70 65 63 74 65 64 3A 20 00 .CSTR   "\r\n\r\nExpected: "   
1436   21 0A 00               LD   hl,10   
1439   E5                     PUSH   hl   
143A   E5                     PUSH   hl   
143B   CD 77 10               CALL   run   
143E   2E 60 24 60 2E 68 00   .CSTR   ".`$`.h"   
1445   CD 7A 0F               CALL   printStr   
1448   0D 0A 0D 0A 41 63 74 75 61 6C 3A 20 00 .CSTR   "\r\n\r\nActual: "   
1455   E1                     POP   hl   
1456   E5                     PUSH   hl   
1457   E5                     PUSH   hl   
1458   CD 77 10               CALL   run   
145B   2E 60 24 60 2E 68 60 0D 0A 60 00 .CSTR   ".`$`.h`\r\n`"   
1466   76                     HALT      
1467                EXPECTM_3022S59:      
1467   E1                     POP   HL   
1468                          ;*Macro unroll:  test "123", 123
1468   31 00 53               LD   SP,STACK   
146B   CD AE 0F               CALL   coldInit   
146E   CD CC 51               CALL   execStr   
1471   31 32 33 00            DB   "123",0   
1475   E1                     POP   HL   
1476   E5                     PUSH   HL   
1477   11 7B 00               LD   DE,123   
147A   B7                     OR   A   
147B   ED 52                  SBC   HL,DE   
147D   7D                     LD   A,L   
147E   B4                     OR   H   
147F   CA D2 14               JP   Z,expectM_3023S60   
1482   CD 7A 0F               CALL   printStr   
1485   43 6F 64 65 3A 20 31 32 33 00 .CSTR   "Code: ","123"   
148F   CD 7A 0F               CALL   printStr   
1492   0D 0A 0D 0A 45 78 70 65 63 74 65 64 3A 20 00 .CSTR   "\r\n\r\nExpected: "   
14A1   21 7B 00               LD   hl,123   
14A4   E5                     PUSH   hl   
14A5   E5                     PUSH   hl   
14A6   CD 77 10               CALL   run   
14A9   2E 60 24 60 2E 68 00   .CSTR   ".`$`.h"   
14B0   CD 7A 0F               CALL   printStr   
14B3   0D 0A 0D 0A 41 63 74 75 61 6C 3A 20 00 .CSTR   "\r\n\r\nActual: "   
14C0   E1                     POP   hl   
14C1   E5                     PUSH   hl   
14C2   E5                     PUSH   hl   
14C3   CD 77 10               CALL   run   
14C6   2E 60 24 60 2E 68 60 0D 0A 60 00 .CSTR   ".`$`.h`\r\n`"   
14D1   76                     HALT      
14D2                EXPECTM_3023S60:      
14D2   E1                     POP   HL   
14D3                          ;*Macro unroll:  test "-1",-1
14D3   31 00 53               LD   SP,STACK   
14D6   CD AE 0F               CALL   coldInit   
14D9   CD CC 51               CALL   execStr   
14DC   2D 31 00               DB   "-1",0   
14DF   E1                     POP   HL   
14E0   E5                     PUSH   HL   
14E1   11 FF FF               LD   DE,-1   
14E4   B7                     OR   A   
14E5   ED 52                  SBC   HL,DE   
14E7   7D                     LD   A,L   
14E8   B4                     OR   H   
14E9   CA 3B 15               JP   Z,expectM_3024S61   
14EC   CD 7A 0F               CALL   printStr   
14EF   43 6F 64 65 3A 20 2D 31 00 .CSTR   "Code: ","-1"   
14F8   CD 7A 0F               CALL   printStr   
14FB   0D 0A 0D 0A 45 78 70 65 63 74 65 64 3A 20 00 .CSTR   "\r\n\r\nExpected: "   
150A   21 FF FF               LD   hl,-1   
150D   E5                     PUSH   hl   
150E   E5                     PUSH   hl   
150F   CD 77 10               CALL   run   
1512   2E 60 24 60 2E 68 00   .CSTR   ".`$`.h"   
1519   CD 7A 0F               CALL   printStr   
151C   0D 0A 0D 0A 41 63 74 75 61 6C 3A 20 00 .CSTR   "\r\n\r\nActual: "   
1529   E1                     POP   hl   
152A   E5                     PUSH   hl   
152B   E5                     PUSH   hl   
152C   CD 77 10               CALL   run   
152F   2E 60 24 60 2E 68 60 0D 0A 60 00 .CSTR   ".`$`.h`\r\n`"   
153A   76                     HALT      
153B                EXPECTM_3024S61:      
153B   E1                     POP   HL   
153C                          ;*Macro unroll:  test "-1/ab",1
153C   31 00 53               LD   SP,STACK   
153F   CD AE 0F               CALL   coldInit   
1542   CD CC 51               CALL   execStr   
1545   2D 31 2F 61 62 00      DB   "-1/ab",0   
154B   E1                     POP   HL   
154C   E5                     PUSH   HL   
154D   11 01 00               LD   DE,1   
1550   B7                     OR   A   
1551   ED 52                  SBC   HL,DE   
1553   7D                     LD   A,L   
1554   B4                     OR   H   
1555   CA AA 15               JP   Z,expectM_3025S62   
1558   CD 7A 0F               CALL   printStr   
155B   43 6F 64 65 3A 20 2D 31 2F 61 62 00 .CSTR   "Code: ","-1/ab"   
1567   CD 7A 0F               CALL   printStr   
156A   0D 0A 0D 0A 45 78 70 65 63 74 65 64 3A 20 00 .CSTR   "\r\n\r\nExpected: "   
1579   21 01 00               LD   hl,1   
157C   E5                     PUSH   hl   
157D   E5                     PUSH   hl   
157E   CD 77 10               CALL   run   
1581   2E 60 24 60 2E 68 00   .CSTR   ".`$`.h"   
1588   CD 7A 0F               CALL   printStr   
158B   0D 0A 0D 0A 41 63 74 75 61 6C 3A 20 00 .CSTR   "\r\n\r\nActual: "   
1598   E1                     POP   hl   
1599   E5                     PUSH   hl   
159A   E5                     PUSH   hl   
159B   CD 77 10               CALL   run   
159E   2E 60 24 60 2E 68 60 0D 0A 60 00 .CSTR   ".`$`.h`\r\n`"   
15A9   76                     HALT      
15AA                EXPECTM_3025S62:      
15AA   E1                     POP   HL   
15AB                          ;*Macro unroll:  test "_a", $61
15AB   31 00 53               LD   SP,STACK   
15AE   CD AE 0F               CALL   coldInit   
15B1   CD CC 51               CALL   execStr   
15B4   5F 61 00               DB   "_a",0   
15B7   E1                     POP   HL   
15B8   E5                     PUSH   HL   
15B9   11 61 00               LD   DE,$61   
15BC   B7                     OR   A   
15BD   ED 52                  SBC   HL,DE   
15BF   7D                     LD   A,L   
15C0   B4                     OR   H   
15C1   CA 13 16               JP   Z,expectM_3026S63   
15C4   CD 7A 0F               CALL   printStr   
15C7   43 6F 64 65 3A 20 5F 61 00 .CSTR   "Code: ","_a"   
15D0   CD 7A 0F               CALL   printStr   
15D3   0D 0A 0D 0A 45 78 70 65 63 74 65 64 3A 20 00 .CSTR   "\r\n\r\nExpected: "   
15E2   21 61 00               LD   hl,$61   
15E5   E5                     PUSH   hl   
15E6   E5                     PUSH   hl   
15E7   CD 77 10               CALL   run   
15EA   2E 60 24 60 2E 68 00   .CSTR   ".`$`.h"   
15F1   CD 7A 0F               CALL   printStr   
15F4   0D 0A 0D 0A 41 63 74 75 61 6C 3A 20 00 .CSTR   "\r\n\r\nActual: "   
1601   E1                     POP   hl   
1602   E5                     PUSH   hl   
1603   E5                     PUSH   hl   
1604   CD 77 10               CALL   run   
1607   2E 60 24 60 2E 68 60 0D 0A 60 00 .CSTR   ".`$`.h`\r\n`"   
1612   76                     HALT      
1613                EXPECTM_3026S63:      
1613   E1                     POP   HL   
1614                          ;*Macro unroll:  test "__", $5F
1614   31 00 53               LD   SP,STACK   
1617   CD AE 0F               CALL   coldInit   
161A   CD CC 51               CALL   execStr   
161D   5F 5F 00               DB   "__",0   
1620   E1                     POP   HL   
1621   E5                     PUSH   HL   
1622   11 5F 00               LD   DE,$5F   
1625   B7                     OR   A   
1626   ED 52                  SBC   HL,DE   
1628   7D                     LD   A,L   
1629   B4                     OR   H   
162A   CA 7C 16               JP   Z,expectM_3027S64   
162D   CD 7A 0F               CALL   printStr   
1630   43 6F 64 65 3A 20 5F 5F 00 .CSTR   "Code: ","__"   
1639   CD 7A 0F               CALL   printStr   
163C   0D 0A 0D 0A 45 78 70 65 63 74 65 64 3A 20 00 .CSTR   "\r\n\r\nExpected: "   
164B   21 5F 00               LD   hl,$5F   
164E   E5                     PUSH   hl   
164F   E5                     PUSH   hl   
1650   CD 77 10               CALL   run   
1653   2E 60 24 60 2E 68 00   .CSTR   ".`$`.h"   
165A   CD 7A 0F               CALL   printStr   
165D   0D 0A 0D 0A 41 63 74 75 61 6C 3A 20 00 .CSTR   "\r\n\r\nActual: "   
166A   E1                     POP   hl   
166B   E5                     PUSH   hl   
166C   E5                     PUSH   hl   
166D   CD 77 10               CALL   run   
1670   2E 60 24 60 2E 68 60 0D 0A 60 00 .CSTR   ".`$`.h`\r\n`"   
167B   76                     HALT      
167C                EXPECTM_3027S64:      
167C   E1                     POP   HL   
167D                          ;*Macro unroll:  test "$10", $10
167D   31 00 53               LD   SP,STACK   
1680   CD AE 0F               CALL   coldInit   
1683   CD CC 51               CALL   execStr   
1686   24 31 30 00            DB   "$10",0   
168A   E1                     POP   HL   
168B   E5                     PUSH   HL   
168C   11 10 00               LD   DE,$10   
168F   B7                     OR   A   
1690   ED 52                  SBC   HL,DE   
1692   7D                     LD   A,L   
1693   B4                     OR   H   
1694   CA E7 16               JP   Z,expectM_3028S65   
1697   CD 7A 0F               CALL   printStr   
169A   43 6F 64 65 3A 20 24 31 30 00 .CSTR   "Code: ","$10"   
16A4   CD 7A 0F               CALL   printStr   
16A7   0D 0A 0D 0A 45 78 70 65 63 74 65 64 3A 20 00 .CSTR   "\r\n\r\nExpected: "   
16B6   21 10 00               LD   hl,$10   
16B9   E5                     PUSH   hl   
16BA   E5                     PUSH   hl   
16BB   CD 77 10               CALL   run   
16BE   2E 60 24 60 2E 68 00   .CSTR   ".`$`.h"   
16C5   CD 7A 0F               CALL   printStr   
16C8   0D 0A 0D 0A 41 63 74 75 61 6C 3A 20 00 .CSTR   "\r\n\r\nActual: "   
16D5   E1                     POP   hl   
16D6   E5                     PUSH   hl   
16D7   E5                     PUSH   hl   
16D8   CD 77 10               CALL   run   
16DB   2E 60 24 60 2E 68 60 0D 0A 60 00 .CSTR   ".`$`.h`\r\n`"   
16E6   76                     HALT      
16E7                EXPECTM_3028S65:      
16E7   E1                     POP   HL   
16E8                          ;*Macro unroll:  test "$FF", $FF
16E8   31 00 53               LD   SP,STACK   
16EB   CD AE 0F               CALL   coldInit   
16EE   CD CC 51               CALL   execStr   
16F1   24 46 46 00            DB   "$FF",0   
16F5   E1                     POP   HL   
16F6   E5                     PUSH   HL   
16F7   11 FF 00               LD   DE,$FF   
16FA   B7                     OR   A   
16FB   ED 52                  SBC   HL,DE   
16FD   7D                     LD   A,L   
16FE   B4                     OR   H   
16FF   CA 52 17               JP   Z,expectM_3029S66   
1702   CD 7A 0F               CALL   printStr   
1705   43 6F 64 65 3A 20 24 46 46 00 .CSTR   "Code: ","$FF"   
170F   CD 7A 0F               CALL   printStr   
1712   0D 0A 0D 0A 45 78 70 65 63 74 65 64 3A 20 00 .CSTR   "\r\n\r\nExpected: "   
1721   21 FF 00               LD   hl,$FF   
1724   E5                     PUSH   hl   
1725   E5                     PUSH   hl   
1726   CD 77 10               CALL   run   
1729   2E 60 24 60 2E 68 00   .CSTR   ".`$`.h"   
1730   CD 7A 0F               CALL   printStr   
1733   0D 0A 0D 0A 41 63 74 75 61 6C 3A 20 00 .CSTR   "\r\n\r\nActual: "   
1740   E1                     POP   hl   
1741   E5                     PUSH   hl   
1742   E5                     PUSH   hl   
1743   CD 77 10               CALL   run   
1746   2E 60 24 60 2E 68 60 0D 0A 60 00 .CSTR   ".`$`.h`\r\n`"   
1751   76                     HALT      
1752                EXPECTM_3029S66:      
1752   E1                     POP   HL   
1753                          ;*Macro unroll:  test "-1 2 +",1
1753   31 00 53               LD   SP,STACK   
1756   CD AE 0F               CALL   coldInit   
1759   CD CC 51               CALL   execStr   
175C   2D 31 20 32 20 2B 00   DB   "-1 2 +",0   
1763   E1                     POP   HL   
1764   E5                     PUSH   HL   
1765   11 01 00               LD   DE,1   
1768   B7                     OR   A   
1769   ED 52                  SBC   HL,DE   
176B   7D                     LD   A,L   
176C   B4                     OR   H   
176D   CA C3 17               JP   Z,expectM_3030S67   
1770   CD 7A 0F               CALL   printStr   
1773   43 6F 64 65 3A 20 2D 31 20 32 20 2B 00 .CSTR   "Code: ","-1 2 +"   
1780   CD 7A 0F               CALL   printStr   
1783   0D 0A 0D 0A 45 78 70 65 63 74 65 64 3A 20 00 .CSTR   "\r\n\r\nExpected: "   
1792   21 01 00               LD   hl,1   
1795   E5                     PUSH   hl   
1796   E5                     PUSH   hl   
1797   CD 77 10               CALL   run   
179A   2E 60 24 60 2E 68 00   .CSTR   ".`$`.h"   
17A1   CD 7A 0F               CALL   printStr   
17A4   0D 0A 0D 0A 41 63 74 75 61 6C 3A 20 00 .CSTR   "\r\n\r\nActual: "   
17B1   E1                     POP   hl   
17B2   E5                     PUSH   hl   
17B3   E5                     PUSH   hl   
17B4   CD 77 10               CALL   run   
17B7   2E 60 24 60 2E 68 60 0D 0A 60 00 .CSTR   ".`$`.h`\r\n`"   
17C2   76                     HALT      
17C3                EXPECTM_3030S67:      
17C3   E1                     POP   HL   
17C4                          ;*Macro unroll:  test "-1 1 +",0
17C4   31 00 53               LD   SP,STACK   
17C7   CD AE 0F               CALL   coldInit   
17CA   CD CC 51               CALL   execStr   
17CD   2D 31 20 31 20 2B 00   DB   "-1 1 +",0   
17D4   E1                     POP   HL   
17D5   E5                     PUSH   HL   
17D6   11 00 00               LD   DE,0   
17D9   B7                     OR   A   
17DA   ED 52                  SBC   HL,DE   
17DC   7D                     LD   A,L   
17DD   B4                     OR   H   
17DE   CA 34 18               JP   Z,expectM_3031S68   
17E1   CD 7A 0F               CALL   printStr   
17E4   43 6F 64 65 3A 20 2D 31 20 31 20 2B 00 .CSTR   "Code: ","-1 1 +"   
17F1   CD 7A 0F               CALL   printStr   
17F4   0D 0A 0D 0A 45 78 70 65 63 74 65 64 3A 20 00 .CSTR   "\r\n\r\nExpected: "   
1803   21 00 00               LD   hl,0   
1806   E5                     PUSH   hl   
1807   E5                     PUSH   hl   
1808   CD 77 10               CALL   run   
180B   2E 60 24 60 2E 68 00   .CSTR   ".`$`.h"   
1812   CD 7A 0F               CALL   printStr   
1815   0D 0A 0D 0A 41 63 74 75 61 6C 3A 20 00 .CSTR   "\r\n\r\nActual: "   
1822   E1                     POP   hl   
1823   E5                     PUSH   hl   
1824   E5                     PUSH   hl   
1825   CD 77 10               CALL   run   
1828   2E 60 24 60 2E 68 60 0D 0A 60 00 .CSTR   ".`$`.h`\r\n`"   
1833   76                     HALT      
1834                EXPECTM_3031S68:      
1834   E1                     POP   HL   
1835                          ;*Macro unroll:  test "1 2 +", 3
1835   31 00 53               LD   SP,STACK   
1838   CD AE 0F               CALL   coldInit   
183B   CD CC 51               CALL   execStr   
183E   31 20 32 20 2B 00      DB   "1 2 +",0   
1844   E1                     POP   HL   
1845   E5                     PUSH   HL   
1846   11 03 00               LD   DE,3   
1849   B7                     OR   A   
184A   ED 52                  SBC   HL,DE   
184C   7D                     LD   A,L   
184D   B4                     OR   H   
184E   CA A3 18               JP   Z,expectM_3032S69   
1851   CD 7A 0F               CALL   printStr   
1854   43 6F 64 65 3A 20 31 20 32 20 2B 00 .CSTR   "Code: ","1 2 +"   
1860   CD 7A 0F               CALL   printStr   
1863   0D 0A 0D 0A 45 78 70 65 63 74 65 64 3A 20 00 .CSTR   "\r\n\r\nExpected: "   
1872   21 03 00               LD   hl,3   
1875   E5                     PUSH   hl   
1876   E5                     PUSH   hl   
1877   CD 77 10               CALL   run   
187A   2E 60 24 60 2E 68 00   .CSTR   ".`$`.h"   
1881   CD 7A 0F               CALL   printStr   
1884   0D 0A 0D 0A 41 63 74 75 61 6C 3A 20 00 .CSTR   "\r\n\r\nActual: "   
1891   E1                     POP   hl   
1892   E5                     PUSH   hl   
1893   E5                     PUSH   hl   
1894   CD 77 10               CALL   run   
1897   2E 60 24 60 2E 68 60 0D 0A 60 00 .CSTR   ".`$`.h`\r\n`"   
18A2   76                     HALT      
18A3                EXPECTM_3032S69:      
18A3   E1                     POP   HL   
18A4                          ;*Macro unroll:  test "4 1 2 +", 3
18A4   31 00 53               LD   SP,STACK   
18A7   CD AE 0F               CALL   coldInit   
18AA   CD CC 51               CALL   execStr   
18AD   34 20 31 20 32 20 2B 00 DB   "4 1 2 +",0   
18B5   E1                     POP   HL   
18B6   E5                     PUSH   HL   
18B7   11 03 00               LD   DE,3   
18BA   B7                     OR   A   
18BB   ED 52                  SBC   HL,DE   
18BD   7D                     LD   A,L   
18BE   B4                     OR   H   
18BF   CA 16 19               JP   Z,expectM_3033S70   
18C2   CD 7A 0F               CALL   printStr   
18C5   43 6F 64 65 3A 20 34 20 31 20 32 20 2B 00 .CSTR   "Code: ","4 1 2 +"   
18D3   CD 7A 0F               CALL   printStr   
18D6   0D 0A 0D 0A 45 78 70 65 63 74 65 64 3A 20 00 .CSTR   "\r\n\r\nExpected: "   
18E5   21 03 00               LD   hl,3   
18E8   E5                     PUSH   hl   
18E9   E5                     PUSH   hl   
18EA   CD 77 10               CALL   run   
18ED   2E 60 24 60 2E 68 00   .CSTR   ".`$`.h"   
18F4   CD 7A 0F               CALL   printStr   
18F7   0D 0A 0D 0A 41 63 74 75 61 6C 3A 20 00 .CSTR   "\r\n\r\nActual: "   
1904   E1                     POP   hl   
1905   E5                     PUSH   hl   
1906   E5                     PUSH   hl   
1907   CD 77 10               CALL   run   
190A   2E 60 24 60 2E 68 60 0D 0A 60 00 .CSTR   ".`$`.h`\r\n`"   
1915   76                     HALT      
1916                EXPECTM_3033S70:      
1916   E1                     POP   HL   
1917                          ;*Macro unroll:  test "123 456 +", 123+456
1917   31 00 53               LD   SP,STACK   
191A   CD AE 0F               CALL   coldInit   
191D   CD CC 51               CALL   execStr   
1920   31 32 33 20 34 35 36 20 2B 00 DB   "123 456 +",0   
192A   E1                     POP   HL   
192B   E5                     PUSH   HL   
192C   11 43 02               LD   DE,123+456   
192F   B7                     OR   A   
1930   ED 52                  SBC   HL,DE   
1932   7D                     LD   A,L   
1933   B4                     OR   H   
1934   CA 8D 19               JP   Z,expectM_3034S71   
1937   CD 7A 0F               CALL   printStr   
193A   43 6F 64 65 3A 20 31 32 33 20 34 35 36 20 2B 00 .CSTR   "Code: ","123 456 +"   
194A   CD 7A 0F               CALL   printStr   
194D   0D 0A 0D 0A 45 78 70 65 63 74 65 64 3A 20 00 .CSTR   "\r\n\r\nExpected: "   
195C   21 43 02               LD   hl,123+456   
195F   E5                     PUSH   hl   
1960   E5                     PUSH   hl   
1961   CD 77 10               CALL   run   
1964   2E 60 24 60 2E 68 00   .CSTR   ".`$`.h"   
196B   CD 7A 0F               CALL   printStr   
196E   0D 0A 0D 0A 41 63 74 75 61 6C 3A 20 00 .CSTR   "\r\n\r\nActual: "   
197B   E1                     POP   hl   
197C   E5                     PUSH   hl   
197D   E5                     PUSH   hl   
197E   CD 77 10               CALL   run   
1981   2E 60 24 60 2E 68 60 0D 0A 60 00 .CSTR   ".`$`.h`\r\n`"   
198C   76                     HALT      
198D                EXPECTM_3034S71:      
198D   E1                     POP   HL   
198E                          ;*Macro unroll:  test "64 128 +", 64+128
198E   31 00 53               LD   SP,STACK   
1991   CD AE 0F               CALL   coldInit   
1994   CD CC 51               CALL   execStr   
1997   36 34 20 31 32 38 20 2B 00 DB   "64 128 +",0   
19A0   E1                     POP   HL   
19A1   E5                     PUSH   HL   
19A2   11 C0 00               LD   DE,64+128   
19A5   B7                     OR   A   
19A6   ED 52                  SBC   HL,DE   
19A8   7D                     LD   A,L   
19A9   B4                     OR   H   
19AA   CA 02 1A               JP   Z,expectM_3035S72   
19AD   CD 7A 0F               CALL   printStr   
19B0   43 6F 64 65 3A 20 36 34 20 31 32 38 20 2B 00 .CSTR   "Code: ","64 128 +"   
19BF   CD 7A 0F               CALL   printStr   
19C2   0D 0A 0D 0A 45 78 70 65 63 74 65 64 3A 20 00 .CSTR   "\r\n\r\nExpected: "   
19D1   21 C0 00               LD   hl,64+128   
19D4   E5                     PUSH   hl   
19D5   E5                     PUSH   hl   
19D6   CD 77 10               CALL   run   
19D9   2E 60 24 60 2E 68 00   .CSTR   ".`$`.h"   
19E0   CD 7A 0F               CALL   printStr   
19E3   0D 0A 0D 0A 41 63 74 75 61 6C 3A 20 00 .CSTR   "\r\n\r\nActual: "   
19F0   E1                     POP   hl   
19F1   E5                     PUSH   hl   
19F2   E5                     PUSH   hl   
19F3   CD 77 10               CALL   run   
19F6   2E 60 24 60 2E 68 60 0D 0A 60 00 .CSTR   ".`$`.h`\r\n`"   
1A01   76                     HALT      
1A02                EXPECTM_3035S72:      
1A02   E1                     POP   HL   
1A03                          ;*Macro unroll:  test "1 2 +", 3
1A03   31 00 53               LD   SP,STACK   
1A06   CD AE 0F               CALL   coldInit   
1A09   CD CC 51               CALL   execStr   
1A0C   31 20 32 20 2B 00      DB   "1 2 +",0   
1A12   E1                     POP   HL   
1A13   E5                     PUSH   HL   
1A14   11 03 00               LD   DE,3   
1A17   B7                     OR   A   
1A18   ED 52                  SBC   HL,DE   
1A1A   7D                     LD   A,L   
1A1B   B4                     OR   H   
1A1C   CA 71 1A               JP   Z,expectM_3036S73   
1A1F   CD 7A 0F               CALL   printStr   
1A22   43 6F 64 65 3A 20 31 20 32 20 2B 00 .CSTR   "Code: ","1 2 +"   
1A2E   CD 7A 0F               CALL   printStr   
1A31   0D 0A 0D 0A 45 78 70 65 63 74 65 64 3A 20 00 .CSTR   "\r\n\r\nExpected: "   
1A40   21 03 00               LD   hl,3   
1A43   E5                     PUSH   hl   
1A44   E5                     PUSH   hl   
1A45   CD 77 10               CALL   run   
1A48   2E 60 24 60 2E 68 00   .CSTR   ".`$`.h"   
1A4F   CD 7A 0F               CALL   printStr   
1A52   0D 0A 0D 0A 41 63 74 75 61 6C 3A 20 00 .CSTR   "\r\n\r\nActual: "   
1A5F   E1                     POP   hl   
1A60   E5                     PUSH   hl   
1A61   E5                     PUSH   hl   
1A62   CD 77 10               CALL   run   
1A65   2E 60 24 60 2E 68 60 0D 0A 60 00 .CSTR   ".`$`.h`\r\n`"   
1A70   76                     HALT      
1A71                EXPECTM_3036S73:      
1A71   E1                     POP   HL   
1A72                          ;*Macro unroll:  test "1a= a++ a",2
1A72   31 00 53               LD   SP,STACK   
1A75   CD AE 0F               CALL   coldInit   
1A78   CD CC 51               CALL   execStr   
1A7B   31 61 3D 20 61 2B 2B 20 61 00 DB   "1a= a++ a",0   
1A85   E1                     POP   HL   
1A86   E5                     PUSH   HL   
1A87   11 02 00               LD   DE,2   
1A8A   B7                     OR   A   
1A8B   ED 52                  SBC   HL,DE   
1A8D   7D                     LD   A,L   
1A8E   B4                     OR   H   
1A8F   CA E8 1A               JP   Z,expectM_3037S74   
1A92   CD 7A 0F               CALL   printStr   
1A95   43 6F 64 65 3A 20 31 61 3D 20 61 2B 2B 20 61 00 .CSTR   "Code: ","1a= a++ a"   
1AA5   CD 7A 0F               CALL   printStr   
1AA8   0D 0A 0D 0A 45 78 70 65 63 74 65 64 3A 20 00 .CSTR   "\r\n\r\nExpected: "   
1AB7   21 02 00               LD   hl,2   
1ABA   E5                     PUSH   hl   
1ABB   E5                     PUSH   hl   
1ABC   CD 77 10               CALL   run   
1ABF   2E 60 24 60 2E 68 00   .CSTR   ".`$`.h"   
1AC6   CD 7A 0F               CALL   printStr   
1AC9   0D 0A 0D 0A 41 63 74 75 61 6C 3A 20 00 .CSTR   "\r\n\r\nActual: "   
1AD6   E1                     POP   hl   
1AD7   E5                     PUSH   hl   
1AD8   E5                     PUSH   hl   
1AD9   CD 77 10               CALL   run   
1ADC   2E 60 24 60 2E 68 60 0D 0A 60 00 .CSTR   ".`$`.h`\r\n`"   
1AE7   76                     HALT      
1AE8                EXPECTM_3037S74:      
1AE8   E1                     POP   HL   
1AE9                          ;*Macro unroll:  test "-1 -1 -",0
1AE9   31 00 53               LD   SP,STACK   
1AEC   CD AE 0F               CALL   coldInit   
1AEF   CD CC 51               CALL   execStr   
1AF2   2D 31 20 2D 31 20 2D 00 DB   "-1 -1 -",0   
1AFA   E1                     POP   HL   
1AFB   E5                     PUSH   HL   
1AFC   11 00 00               LD   DE,0   
1AFF   B7                     OR   A   
1B00   ED 52                  SBC   HL,DE   
1B02   7D                     LD   A,L   
1B03   B4                     OR   H   
1B04   CA 5B 1B               JP   Z,expectM_3038S75   
1B07   CD 7A 0F               CALL   printStr   
1B0A   43 6F 64 65 3A 20 2D 31 20 2D 31 20 2D 00 .CSTR   "Code: ","-1 -1 -"   
1B18   CD 7A 0F               CALL   printStr   
1B1B   0D 0A 0D 0A 45 78 70 65 63 74 65 64 3A 20 00 .CSTR   "\r\n\r\nExpected: "   
1B2A   21 00 00               LD   hl,0   
1B2D   E5                     PUSH   hl   
1B2E   E5                     PUSH   hl   
1B2F   CD 77 10               CALL   run   
1B32   2E 60 24 60 2E 68 00   .CSTR   ".`$`.h"   
1B39   CD 7A 0F               CALL   printStr   
1B3C   0D 0A 0D 0A 41 63 74 75 61 6C 3A 20 00 .CSTR   "\r\n\r\nActual: "   
1B49   E1                     POP   hl   
1B4A   E5                     PUSH   hl   
1B4B   E5                     PUSH   hl   
1B4C   CD 77 10               CALL   run   
1B4F   2E 60 24 60 2E 68 60 0D 0A 60 00 .CSTR   ".`$`.h`\r\n`"   
1B5A   76                     HALT      
1B5B                EXPECTM_3038S75:      
1B5B   E1                     POP   HL   
1B5C                          ;*Macro unroll:  test "5 3 -", 2
1B5C   31 00 53               LD   SP,STACK   
1B5F   CD AE 0F               CALL   coldInit   
1B62   CD CC 51               CALL   execStr   
1B65   35 20 33 20 2D 00      DB   "5 3 -",0   
1B6B   E1                     POP   HL   
1B6C   E5                     PUSH   HL   
1B6D   11 02 00               LD   DE,2   
1B70   B7                     OR   A   
1B71   ED 52                  SBC   HL,DE   
1B73   7D                     LD   A,L   
1B74   B4                     OR   H   
1B75   CA CA 1B               JP   Z,expectM_3039S76   
1B78   CD 7A 0F               CALL   printStr   
1B7B   43 6F 64 65 3A 20 35 20 33 20 2D 00 .CSTR   "Code: ","5 3 -"   
1B87   CD 7A 0F               CALL   printStr   
1B8A   0D 0A 0D 0A 45 78 70 65 63 74 65 64 3A 20 00 .CSTR   "\r\n\r\nExpected: "   
1B99   21 02 00               LD   hl,2   
1B9C   E5                     PUSH   hl   
1B9D   E5                     PUSH   hl   
1B9E   CD 77 10               CALL   run   
1BA1   2E 60 24 60 2E 68 00   .CSTR   ".`$`.h"   
1BA8   CD 7A 0F               CALL   printStr   
1BAB   0D 0A 0D 0A 41 63 74 75 61 6C 3A 20 00 .CSTR   "\r\n\r\nActual: "   
1BB8   E1                     POP   hl   
1BB9   E5                     PUSH   hl   
1BBA   E5                     PUSH   hl   
1BBB   CD 77 10               CALL   run   
1BBE   2E 60 24 60 2E 68 60 0D 0A 60 00 .CSTR   ".`$`.h`\r\n`"   
1BC9   76                     HALT      
1BCA                EXPECTM_3039S76:      
1BCA   E1                     POP   HL   
1BCB                          ;*Macro unroll:  test "2 1 -",1
1BCB   31 00 53               LD   SP,STACK   
1BCE   CD AE 0F               CALL   coldInit   
1BD1   CD CC 51               CALL   execStr   
1BD4   32 20 31 20 2D 00      DB   "2 1 -",0   
1BDA   E1                     POP   HL   
1BDB   E5                     PUSH   HL   
1BDC   11 01 00               LD   DE,1   
1BDF   B7                     OR   A   
1BE0   ED 52                  SBC   HL,DE   
1BE2   7D                     LD   A,L   
1BE3   B4                     OR   H   
1BE4   CA 39 1C               JP   Z,expectM_3040S77   
1BE7   CD 7A 0F               CALL   printStr   
1BEA   43 6F 64 65 3A 20 32 20 31 20 2D 00 .CSTR   "Code: ","2 1 -"   
1BF6   CD 7A 0F               CALL   printStr   
1BF9   0D 0A 0D 0A 45 78 70 65 63 74 65 64 3A 20 00 .CSTR   "\r\n\r\nExpected: "   
1C08   21 01 00               LD   hl,1   
1C0B   E5                     PUSH   hl   
1C0C   E5                     PUSH   hl   
1C0D   CD 77 10               CALL   run   
1C10   2E 60 24 60 2E 68 00   .CSTR   ".`$`.h"   
1C17   CD 7A 0F               CALL   printStr   
1C1A   0D 0A 0D 0A 41 63 74 75 61 6C 3A 20 00 .CSTR   "\r\n\r\nActual: "   
1C27   E1                     POP   hl   
1C28   E5                     PUSH   hl   
1C29   E5                     PUSH   hl   
1C2A   CD 77 10               CALL   run   
1C2D   2E 60 24 60 2E 68 60 0D 0A 60 00 .CSTR   ".`$`.h`\r\n`"   
1C38   76                     HALT      
1C39                EXPECTM_3040S77:      
1C39   E1                     POP   HL   
1C3A                          ;*Macro unroll:  test "3a= a-- a",2
1C3A   31 00 53               LD   SP,STACK   
1C3D   CD AE 0F               CALL   coldInit   
1C40   CD CC 51               CALL   execStr   
1C43   33 61 3D 20 61 2D 2D 20 61 00 DB   "3a= a-- a",0   
1C4D   E1                     POP   HL   
1C4E   E5                     PUSH   HL   
1C4F   11 02 00               LD   DE,2   
1C52   B7                     OR   A   
1C53   ED 52                  SBC   HL,DE   
1C55   7D                     LD   A,L   
1C56   B4                     OR   H   
1C57   CA B0 1C               JP   Z,expectM_3041S78   
1C5A   CD 7A 0F               CALL   printStr   
1C5D   43 6F 64 65 3A 20 33 61 3D 20 61 2D 2D 20 61 00 .CSTR   "Code: ","3a= a-- a"   
1C6D   CD 7A 0F               CALL   printStr   
1C70   0D 0A 0D 0A 45 78 70 65 63 74 65 64 3A 20 00 .CSTR   "\r\n\r\nExpected: "   
1C7F   21 02 00               LD   hl,2   
1C82   E5                     PUSH   hl   
1C83   E5                     PUSH   hl   
1C84   CD 77 10               CALL   run   
1C87   2E 60 24 60 2E 68 00   .CSTR   ".`$`.h"   
1C8E   CD 7A 0F               CALL   printStr   
1C91   0D 0A 0D 0A 41 63 74 75 61 6C 3A 20 00 .CSTR   "\r\n\r\nActual: "   
1C9E   E1                     POP   hl   
1C9F   E5                     PUSH   hl   
1CA0   E5                     PUSH   hl   
1CA1   CD 77 10               CALL   run   
1CA4   2E 60 24 60 2E 68 60 0D 0A 60 00 .CSTR   ".`$`.h`\r\n`"   
1CAF   76                     HALT      
1CB0                EXPECTM_3041S78:      
1CB0   E1                     POP   HL   
1CB1                          ;*Macro unroll:  test "3 5 &", 1
1CB1   31 00 53               LD   SP,STACK   
1CB4   CD AE 0F               CALL   coldInit   
1CB7   CD CC 51               CALL   execStr   
1CBA   33 20 35 20 26 00      DB   "3 5 &",0   
1CC0   E1                     POP   HL   
1CC1   E5                     PUSH   HL   
1CC2   11 01 00               LD   DE,1   
1CC5   B7                     OR   A   
1CC6   ED 52                  SBC   HL,DE   
1CC8   7D                     LD   A,L   
1CC9   B4                     OR   H   
1CCA   CA 1F 1D               JP   Z,expectM_3042S79   
1CCD   CD 7A 0F               CALL   printStr   
1CD0   43 6F 64 65 3A 20 33 20 35 20 26 00 .CSTR   "Code: ","3 5 &"   
1CDC   CD 7A 0F               CALL   printStr   
1CDF   0D 0A 0D 0A 45 78 70 65 63 74 65 64 3A 20 00 .CSTR   "\r\n\r\nExpected: "   
1CEE   21 01 00               LD   hl,1   
1CF1   E5                     PUSH   hl   
1CF2   E5                     PUSH   hl   
1CF3   CD 77 10               CALL   run   
1CF6   2E 60 24 60 2E 68 00   .CSTR   ".`$`.h"   
1CFD   CD 7A 0F               CALL   printStr   
1D00   0D 0A 0D 0A 41 63 74 75 61 6C 3A 20 00 .CSTR   "\r\n\r\nActual: "   
1D0D   E1                     POP   hl   
1D0E   E5                     PUSH   hl   
1D0F   E5                     PUSH   hl   
1D10   CD 77 10               CALL   run   
1D13   2E 60 24 60 2E 68 60 0D 0A 60 00 .CSTR   ".`$`.h`\r\n`"   
1D1E   76                     HALT      
1D1F                EXPECTM_3042S79:      
1D1F   E1                     POP   HL   
1D20                          ;*Macro unroll:  test "3 5 |", 7
1D20   31 00 53               LD   SP,STACK   
1D23   CD AE 0F               CALL   coldInit   
1D26   CD CC 51               CALL   execStr   
1D29   33 20 35 20 7C 00      DB   "3 5 |",0   
1D2F   E1                     POP   HL   
1D30   E5                     PUSH   HL   
1D31   11 07 00               LD   DE,7   
1D34   B7                     OR   A   
1D35   ED 52                  SBC   HL,DE   
1D37   7D                     LD   A,L   
1D38   B4                     OR   H   
1D39   CA 8E 1D               JP   Z,expectM_3043S80   
1D3C   CD 7A 0F               CALL   printStr   
1D3F   43 6F 64 65 3A 20 33 20 35 20 7C 00 .CSTR   "Code: ","3 5 |"   
1D4B   CD 7A 0F               CALL   printStr   
1D4E   0D 0A 0D 0A 45 78 70 65 63 74 65 64 3A 20 00 .CSTR   "\r\n\r\nExpected: "   
1D5D   21 07 00               LD   hl,7   
1D60   E5                     PUSH   hl   
1D61   E5                     PUSH   hl   
1D62   CD 77 10               CALL   run   
1D65   2E 60 24 60 2E 68 00   .CSTR   ".`$`.h"   
1D6C   CD 7A 0F               CALL   printStr   
1D6F   0D 0A 0D 0A 41 63 74 75 61 6C 3A 20 00 .CSTR   "\r\n\r\nActual: "   
1D7C   E1                     POP   hl   
1D7D   E5                     PUSH   hl   
1D7E   E5                     PUSH   hl   
1D7F   CD 77 10               CALL   run   
1D82   2E 60 24 60 2E 68 60 0D 0A 60 00 .CSTR   ".`$`.h`\r\n`"   
1D8D   76                     HALT      
1D8E                EXPECTM_3043S80:      
1D8E   E1                     POP   HL   
1D8F                          ;*Macro unroll:  test "3 5 /x", 6
1D8F   31 00 53               LD   SP,STACK   
1D92   CD AE 0F               CALL   coldInit   
1D95   CD CC 51               CALL   execStr   
1D98   33 20 35 20 2F 78 00   DB   "3 5 /x",0   
1D9F   E1                     POP   HL   
1DA0   E5                     PUSH   HL   
1DA1   11 06 00               LD   DE,6   
1DA4   B7                     OR   A   
1DA5   ED 52                  SBC   HL,DE   
1DA7   7D                     LD   A,L   
1DA8   B4                     OR   H   
1DA9   CA FF 1D               JP   Z,expectM_3044S81   
1DAC   CD 7A 0F               CALL   printStr   
1DAF   43 6F 64 65 3A 20 33 20 35 20 2F 78 00 .CSTR   "Code: ","3 5 /x"   
1DBC   CD 7A 0F               CALL   printStr   
1DBF   0D 0A 0D 0A 45 78 70 65 63 74 65 64 3A 20 00 .CSTR   "\r\n\r\nExpected: "   
1DCE   21 06 00               LD   hl,6   
1DD1   E5                     PUSH   hl   
1DD2   E5                     PUSH   hl   
1DD3   CD 77 10               CALL   run   
1DD6   2E 60 24 60 2E 68 00   .CSTR   ".`$`.h"   
1DDD   CD 7A 0F               CALL   printStr   
1DE0   0D 0A 0D 0A 41 63 74 75 61 6C 3A 20 00 .CSTR   "\r\n\r\nActual: "   
1DED   E1                     POP   hl   
1DEE   E5                     PUSH   hl   
1DEF   E5                     PUSH   hl   
1DF0   CD 77 10               CALL   run   
1DF3   2E 60 24 60 2E 68 60 0D 0A 60 00 .CSTR   ".`$`.h`\r\n`"   
1DFE   76                     HALT      
1DFF                EXPECTM_3044S81:      
1DFF   E1                     POP   HL   
1E00                          ;*Macro unroll:  test "3a= 5 a/x a= a",6
1E00   31 00 53               LD   SP,STACK   
1E03   CD AE 0F               CALL   coldInit   
1E06   CD CC 51               CALL   execStr   
1E09   33 61 3D 20 35 20 61 2F 78 20 61 3D 20 61 00 DB   "3a= 5 a/x a= a",0   
1E18   E1                     POP   HL   
1E19   E5                     PUSH   HL   
1E1A   11 06 00               LD   DE,6   
1E1D   B7                     OR   A   
1E1E   ED 52                  SBC   HL,DE   
1E20   7D                     LD   A,L   
1E21   B4                     OR   H   
1E22   CA 80 1E               JP   Z,expectM_3045S82   
1E25   CD 7A 0F               CALL   printStr   
1E28   43 6F 64 65 3A 20 33 61 3D 20 35 20 61 2F 78 20 61 3D 20 61 00 .CSTR   "Code: ","3a= 5 a/x a= a"   
1E3D   CD 7A 0F               CALL   printStr   
1E40   0D 0A 0D 0A 45 78 70 65 63 74 65 64 3A 20 00 .CSTR   "\r\n\r\nExpected: "   
1E4F   21 06 00               LD   hl,6   
1E52   E5                     PUSH   hl   
1E53   E5                     PUSH   hl   
1E54   CD 77 10               CALL   run   
1E57   2E 60 24 60 2E 68 00   .CSTR   ".`$`.h"   
1E5E   CD 7A 0F               CALL   printStr   
1E61   0D 0A 0D 0A 41 63 74 75 61 6C 3A 20 00 .CSTR   "\r\n\r\nActual: "   
1E6E   E1                     POP   hl   
1E6F   E5                     PUSH   hl   
1E70   E5                     PUSH   hl   
1E71   CD 77 10               CALL   run   
1E74   2E 60 24 60 2E 68 60 0D 0A 60 00 .CSTR   ".`$`.h`\r\n`"   
1E7F   76                     HALT      
1E80                EXPECTM_3045S82:      
1E80   E1                     POP   HL   
1E81                          ;*Macro unroll:  test "0 !", true
1E81   31 00 53               LD   SP,STACK   
1E84   CD AE 0F               CALL   coldInit   
1E87   CD CC 51               CALL   execStr   
1E8A   30 20 21 00            DB   "0 !",0   
1E8E   E1                     POP   HL   
1E8F   E5                     PUSH   HL   
1E90   11 FF FF               LD   DE,true   
1E93   B7                     OR   A   
1E94   ED 52                  SBC   HL,DE   
1E96   7D                     LD   A,L   
1E97   B4                     OR   H   
1E98   CA EB 1E               JP   Z,expectM_3046S83   
1E9B   CD 7A 0F               CALL   printStr   
1E9E   43 6F 64 65 3A 20 30 20 21 00 .CSTR   "Code: ","0 !"   
1EA8   CD 7A 0F               CALL   printStr   
1EAB   0D 0A 0D 0A 45 78 70 65 63 74 65 64 3A 20 00 .CSTR   "\r\n\r\nExpected: "   
1EBA   21 FF FF               LD   hl,true   
1EBD   E5                     PUSH   hl   
1EBE   E5                     PUSH   hl   
1EBF   CD 77 10               CALL   run   
1EC2   2E 60 24 60 2E 68 00   .CSTR   ".`$`.h"   
1EC9   CD 7A 0F               CALL   printStr   
1ECC   0D 0A 0D 0A 41 63 74 75 61 6C 3A 20 00 .CSTR   "\r\n\r\nActual: "   
1ED9   E1                     POP   hl   
1EDA   E5                     PUSH   hl   
1EDB   E5                     PUSH   hl   
1EDC   CD 77 10               CALL   run   
1EDF   2E 60 24 60 2E 68 60 0D 0A 60 00 .CSTR   ".`$`.h`\r\n`"   
1EEA   76                     HALT      
1EEB                EXPECTM_3046S83:      
1EEB   E1                     POP   HL   
1EEC                          ;*Macro unroll:  test "2 !", false
1EEC   31 00 53               LD   SP,STACK   
1EEF   CD AE 0F               CALL   coldInit   
1EF2   CD CC 51               CALL   execStr   
1EF5   32 20 21 00            DB   "2 !",0   
1EF9   E1                     POP   HL   
1EFA   E5                     PUSH   HL   
1EFB   11 00 00               LD   DE,false   
1EFE   B7                     OR   A   
1EFF   ED 52                  SBC   HL,DE   
1F01   7D                     LD   A,L   
1F02   B4                     OR   H   
1F03   CA 56 1F               JP   Z,expectM_3047S84   
1F06   CD 7A 0F               CALL   printStr   
1F09   43 6F 64 65 3A 20 32 20 21 00 .CSTR   "Code: ","2 !"   
1F13   CD 7A 0F               CALL   printStr   
1F16   0D 0A 0D 0A 45 78 70 65 63 74 65 64 3A 20 00 .CSTR   "\r\n\r\nExpected: "   
1F25   21 00 00               LD   hl,false   
1F28   E5                     PUSH   hl   
1F29   E5                     PUSH   hl   
1F2A   CD 77 10               CALL   run   
1F2D   2E 60 24 60 2E 68 00   .CSTR   ".`$`.h"   
1F34   CD 7A 0F               CALL   printStr   
1F37   0D 0A 0D 0A 41 63 74 75 61 6C 3A 20 00 .CSTR   "\r\n\r\nActual: "   
1F44   E1                     POP   hl   
1F45   E5                     PUSH   hl   
1F46   E5                     PUSH   hl   
1F47   CD 77 10               CALL   run   
1F4A   2E 60 24 60 2E 68 60 0D 0A 60 00 .CSTR   ".`$`.h`\r\n`"   
1F55   76                     HALT      
1F56                EXPECTM_3047S84:      
1F56   E1                     POP   HL   
1F57                          ;*Macro unroll:  test "0 !!", false
1F57   31 00 53               LD   SP,STACK   
1F5A   CD AE 0F               CALL   coldInit   
1F5D   CD CC 51               CALL   execStr   
1F60   30 20 21 21 00         DB   "0 !!",0   
1F65   E1                     POP   HL   
1F66   E5                     PUSH   HL   
1F67   11 00 00               LD   DE,false   
1F6A   B7                     OR   A   
1F6B   ED 52                  SBC   HL,DE   
1F6D   7D                     LD   A,L   
1F6E   B4                     OR   H   
1F6F   CA C3 1F               JP   Z,expectM_3048S85   
1F72   CD 7A 0F               CALL   printStr   
1F75   43 6F 64 65 3A 20 30 20 21 21 00 .CSTR   "Code: ","0 !!"   
1F80   CD 7A 0F               CALL   printStr   
1F83   0D 0A 0D 0A 45 78 70 65 63 74 65 64 3A 20 00 .CSTR   "\r\n\r\nExpected: "   
1F92   21 00 00               LD   hl,false   
1F95   E5                     PUSH   hl   
1F96   E5                     PUSH   hl   
1F97   CD 77 10               CALL   run   
1F9A   2E 60 24 60 2E 68 00   .CSTR   ".`$`.h"   
1FA1   CD 7A 0F               CALL   printStr   
1FA4   0D 0A 0D 0A 41 63 74 75 61 6C 3A 20 00 .CSTR   "\r\n\r\nActual: "   
1FB1   E1                     POP   hl   
1FB2   E5                     PUSH   hl   
1FB3   E5                     PUSH   hl   
1FB4   CD 77 10               CALL   run   
1FB7   2E 60 24 60 2E 68 60 0D 0A 60 00 .CSTR   ".`$`.h`\r\n`"   
1FC2   76                     HALT      
1FC3                EXPECTM_3048S85:      
1FC3   E1                     POP   HL   
1FC4                          ;*Macro unroll:  test "2 !!", true
1FC4   31 00 53               LD   SP,STACK   
1FC7   CD AE 0F               CALL   coldInit   
1FCA   CD CC 51               CALL   execStr   
1FCD   32 20 21 21 00         DB   "2 !!",0   
1FD2   E1                     POP   HL   
1FD3   E5                     PUSH   HL   
1FD4   11 FF FF               LD   DE,true   
1FD7   B7                     OR   A   
1FD8   ED 52                  SBC   HL,DE   
1FDA   7D                     LD   A,L   
1FDB   B4                     OR   H   
1FDC   CA 30 20               JP   Z,expectM_3049S86   
1FDF   CD 7A 0F               CALL   printStr   
1FE2   43 6F 64 65 3A 20 32 20 21 21 00 .CSTR   "Code: ","2 !!"   
1FED   CD 7A 0F               CALL   printStr   
1FF0   0D 0A 0D 0A 45 78 70 65 63 74 65 64 3A 20 00 .CSTR   "\r\n\r\nExpected: "   
1FFF   21 FF FF               LD   hl,true   
2002   E5                     PUSH   hl   
2003   E5                     PUSH   hl   
2004   CD 77 10               CALL   run   
2007   2E 60 24 60 2E 68 00   .CSTR   ".`$`.h"   
200E   CD 7A 0F               CALL   printStr   
2011   0D 0A 0D 0A 41 63 74 75 61 6C 3A 20 00 .CSTR   "\r\n\r\nActual: "   
201E   E1                     POP   hl   
201F   E5                     PUSH   hl   
2020   E5                     PUSH   hl   
2021   CD 77 10               CALL   run   
2024   2E 60 24 60 2E 68 60 0D 0A 60 00 .CSTR   ".`$`.h`\r\n`"   
202F   76                     HALT      
2030                EXPECTM_3049S86:      
2030   E1                     POP   HL   
2031                          ;*Macro unroll:  test "2 3 *", 6
2031   31 00 53               LD   SP,STACK   
2034   CD AE 0F               CALL   coldInit   
2037   CD CC 51               CALL   execStr   
203A   32 20 33 20 2A 00      DB   "2 3 *",0   
2040   E1                     POP   HL   
2041   E5                     PUSH   HL   
2042   11 06 00               LD   DE,6   
2045   B7                     OR   A   
2046   ED 52                  SBC   HL,DE   
2048   7D                     LD   A,L   
2049   B4                     OR   H   
204A   CA 9F 20               JP   Z,expectM_3050S87   
204D   CD 7A 0F               CALL   printStr   
2050   43 6F 64 65 3A 20 32 20 33 20 2A 00 .CSTR   "Code: ","2 3 *"   
205C   CD 7A 0F               CALL   printStr   
205F   0D 0A 0D 0A 45 78 70 65 63 74 65 64 3A 20 00 .CSTR   "\r\n\r\nExpected: "   
206E   21 06 00               LD   hl,6   
2071   E5                     PUSH   hl   
2072   E5                     PUSH   hl   
2073   CD 77 10               CALL   run   
2076   2E 60 24 60 2E 68 00   .CSTR   ".`$`.h"   
207D   CD 7A 0F               CALL   printStr   
2080   0D 0A 0D 0A 41 63 74 75 61 6C 3A 20 00 .CSTR   "\r\n\r\nActual: "   
208D   E1                     POP   hl   
208E   E5                     PUSH   hl   
208F   E5                     PUSH   hl   
2090   CD 77 10               CALL   run   
2093   2E 60 24 60 2E 68 60 0D 0A 60 00 .CSTR   ".`$`.h`\r\n`"   
209E   76                     HALT      
209F                EXPECTM_3050S87:      
209F   E1                     POP   HL   
20A0                          ;*Macro unroll:  test "1 2 3 + *", 5
20A0   31 00 53               LD   SP,STACK   
20A3   CD AE 0F               CALL   coldInit   
20A6   CD CC 51               CALL   execStr   
20A9   31 20 32 20 33 20 2B 20 2A 00 DB   "1 2 3 + *",0   
20B3   E1                     POP   HL   
20B4   E5                     PUSH   HL   
20B5   11 05 00               LD   DE,5   
20B8   B7                     OR   A   
20B9   ED 52                  SBC   HL,DE   
20BB   7D                     LD   A,L   
20BC   B4                     OR   H   
20BD   CA 16 21               JP   Z,expectM_3051S88   
20C0   CD 7A 0F               CALL   printStr   
20C3   43 6F 64 65 3A 20 31 20 32 20 33 20 2B 20 2A 00 .CSTR   "Code: ","1 2 3 + *"   
20D3   CD 7A 0F               CALL   printStr   
20D6   0D 0A 0D 0A 45 78 70 65 63 74 65 64 3A 20 00 .CSTR   "\r\n\r\nExpected: "   
20E5   21 05 00               LD   hl,5   
20E8   E5                     PUSH   hl   
20E9   E5                     PUSH   hl   
20EA   CD 77 10               CALL   run   
20ED   2E 60 24 60 2E 68 00   .CSTR   ".`$`.h"   
20F4   CD 7A 0F               CALL   printStr   
20F7   0D 0A 0D 0A 41 63 74 75 61 6C 3A 20 00 .CSTR   "\r\n\r\nActual: "   
2104   E1                     POP   hl   
2105   E5                     PUSH   hl   
2106   E5                     PUSH   hl   
2107   CD 77 10               CALL   run   
210A   2E 60 24 60 2E 68 60 0D 0A 60 00 .CSTR   ".`$`.h`\r\n`"   
2115   76                     HALT      
2116                EXPECTM_3051S88:      
2116   E1                     POP   HL   
2117                          ;*Macro unroll:  test "7 3 /", 2
2117   31 00 53               LD   SP,STACK   
211A   CD AE 0F               CALL   coldInit   
211D   CD CC 51               CALL   execStr   
2120   37 20 33 20 2F 00      DB   "7 3 /",0   
2126   E1                     POP   HL   
2127   E5                     PUSH   HL   
2128   11 02 00               LD   DE,2   
212B   B7                     OR   A   
212C   ED 52                  SBC   HL,DE   
212E   7D                     LD   A,L   
212F   B4                     OR   H   
2130   CA 85 21               JP   Z,expectM_3052S89   
2133   CD 7A 0F               CALL   printStr   
2136   43 6F 64 65 3A 20 37 20 33 20 2F 00 .CSTR   "Code: ","7 3 /"   
2142   CD 7A 0F               CALL   printStr   
2145   0D 0A 0D 0A 45 78 70 65 63 74 65 64 3A 20 00 .CSTR   "\r\n\r\nExpected: "   
2154   21 02 00               LD   hl,2   
2157   E5                     PUSH   hl   
2158   E5                     PUSH   hl   
2159   CD 77 10               CALL   run   
215C   2E 60 24 60 2E 68 00   .CSTR   ".`$`.h"   
2163   CD 7A 0F               CALL   printStr   
2166   0D 0A 0D 0A 41 63 74 75 61 6C 3A 20 00 .CSTR   "\r\n\r\nActual: "   
2173   E1                     POP   hl   
2174   E5                     PUSH   hl   
2175   E5                     PUSH   hl   
2176   CD 77 10               CALL   run   
2179   2E 60 24 60 2E 68 60 0D 0A 60 00 .CSTR   ".`$`.h`\r\n`"   
2184   76                     HALT      
2185                EXPECTM_3052S89:      
2185   E1                     POP   HL   
2186                          ;*Macro unroll:  test "100a= 1a+= a", 101
2186   31 00 53               LD   SP,STACK   
2189   CD AE 0F               CALL   coldInit   
218C   CD CC 51               CALL   execStr   
218F   31 30 30 61 3D 20 31 61 2B 3D 20 61 00 DB   "100a= 1a+= a",0   
219C   E1                     POP   HL   
219D   E5                     PUSH   HL   
219E   11 65 00               LD   DE,101   
21A1   B7                     OR   A   
21A2   ED 52                  SBC   HL,DE   
21A4   7D                     LD   A,L   
21A5   B4                     OR   H   
21A6   CA 02 22               JP   Z,expectM_3053S90   
21A9   CD 7A 0F               CALL   printStr   
21AC   43 6F 64 65 3A 20 31 30 30 61 3D 20 31 61 2B 3D 20 61 00 .CSTR   "Code: ","100a= 1a+= a"   
21BF   CD 7A 0F               CALL   printStr   
21C2   0D 0A 0D 0A 45 78 70 65 63 74 65 64 3A 20 00 .CSTR   "\r\n\r\nExpected: "   
21D1   21 65 00               LD   hl,101   
21D4   E5                     PUSH   hl   
21D5   E5                     PUSH   hl   
21D6   CD 77 10               CALL   run   
21D9   2E 60 24 60 2E 68 00   .CSTR   ".`$`.h"   
21E0   CD 7A 0F               CALL   printStr   
21E3   0D 0A 0D 0A 41 63 74 75 61 6C 3A 20 00 .CSTR   "\r\n\r\nActual: "   
21F0   E1                     POP   hl   
21F1   E5                     PUSH   hl   
21F2   E5                     PUSH   hl   
21F3   CD 77 10               CALL   run   
21F6   2E 60 24 60 2E 68 60 0D 0A 60 00 .CSTR   ".`$`.h`\r\n`"   
2201   76                     HALT      
2202                EXPECTM_3053S90:      
2202   E1                     POP   HL   
2203                          ;*Macro unroll:  test "100a= 1a-= a", 99
2203   31 00 53               LD   SP,STACK   
2206   CD AE 0F               CALL   coldInit   
2209   CD CC 51               CALL   execStr   
220C   31 30 30 61 3D 20 31 61 2D 3D 20 61 00 DB   "100a= 1a-= a",0   
2219   E1                     POP   HL   
221A   E5                     PUSH   HL   
221B   11 63 00               LD   DE,99   
221E   B7                     OR   A   
221F   ED 52                  SBC   HL,DE   
2221   7D                     LD   A,L   
2222   B4                     OR   H   
2223   CA 7F 22               JP   Z,expectM_3054S91   
2226   CD 7A 0F               CALL   printStr   
2229   43 6F 64 65 3A 20 31 30 30 61 3D 20 31 61 2D 3D 20 61 00 .CSTR   "Code: ","100a= 1a-= a"   
223C   CD 7A 0F               CALL   printStr   
223F   0D 0A 0D 0A 45 78 70 65 63 74 65 64 3A 20 00 .CSTR   "\r\n\r\nExpected: "   
224E   21 63 00               LD   hl,99   
2251   E5                     PUSH   hl   
2252   E5                     PUSH   hl   
2253   CD 77 10               CALL   run   
2256   2E 60 24 60 2E 68 00   .CSTR   ".`$`.h"   
225D   CD 7A 0F               CALL   printStr   
2260   0D 0A 0D 0A 41 63 74 75 61 6C 3A 20 00 .CSTR   "\r\n\r\nActual: "   
226D   E1                     POP   hl   
226E   E5                     PUSH   hl   
226F   E5                     PUSH   hl   
2270   CD 77 10               CALL   run   
2273   2E 60 24 60 2E 68 60 0D 0A 60 00 .CSTR   ".`$`.h`\r\n`"   
227E   76                     HALT      
227F                EXPECTM_3054S91:      
227F   E1                     POP   HL   
2280                          ;*Macro unroll:  test "100a= 2a*= a", 200
2280   31 00 53               LD   SP,STACK   
2283   CD AE 0F               CALL   coldInit   
2286   CD CC 51               CALL   execStr   
2289   31 30 30 61 3D 20 32 61 2A 3D 20 61 00 DB   "100a= 2a*= a",0   
2296   E1                     POP   HL   
2297   E5                     PUSH   HL   
2298   11 C8 00               LD   DE,200   
229B   B7                     OR   A   
229C   ED 52                  SBC   HL,DE   
229E   7D                     LD   A,L   
229F   B4                     OR   H   
22A0   CA FC 22               JP   Z,expectM_3055S92   
22A3   CD 7A 0F               CALL   printStr   
22A6   43 6F 64 65 3A 20 31 30 30 61 3D 20 32 61 2A 3D 20 61 00 .CSTR   "Code: ","100a= 2a*= a"   
22B9   CD 7A 0F               CALL   printStr   
22BC   0D 0A 0D 0A 45 78 70 65 63 74 65 64 3A 20 00 .CSTR   "\r\n\r\nExpected: "   
22CB   21 C8 00               LD   hl,200   
22CE   E5                     PUSH   hl   
22CF   E5                     PUSH   hl   
22D0   CD 77 10               CALL   run   
22D3   2E 60 24 60 2E 68 00   .CSTR   ".`$`.h"   
22DA   CD 7A 0F               CALL   printStr   
22DD   0D 0A 0D 0A 41 63 74 75 61 6C 3A 20 00 .CSTR   "\r\n\r\nActual: "   
22EA   E1                     POP   hl   
22EB   E5                     PUSH   hl   
22EC   E5                     PUSH   hl   
22ED   CD 77 10               CALL   run   
22F0   2E 60 24 60 2E 68 60 0D 0A 60 00 .CSTR   ".`$`.h`\r\n`"   
22FB   76                     HALT      
22FC                EXPECTM_3055S92:      
22FC   E1                     POP   HL   
22FD                          ;*Macro unroll:  test "100a= 2 a/= a", 50
22FD   31 00 53               LD   SP,STACK   
2300   CD AE 0F               CALL   coldInit   
2303   CD CC 51               CALL   execStr   
2306   31 30 30 61 3D 20 32 20 61 2F 3D 20 61 00 DB   "100a= 2 a/= a",0   
2314   E1                     POP   HL   
2315   E5                     PUSH   HL   
2316   11 32 00               LD   DE,50   
2319   B7                     OR   A   
231A   ED 52                  SBC   HL,DE   
231C   7D                     LD   A,L   
231D   B4                     OR   H   
231E   CA 7B 23               JP   Z,expectM_3056S93   
2321   CD 7A 0F               CALL   printStr   
2324   43 6F 64 65 3A 20 31 30 30 61 3D 20 32 20 61 2F 3D 20 61 00 .CSTR   "Code: ","100a= 2 a/= a"   
2338   CD 7A 0F               CALL   printStr   
233B   0D 0A 0D 0A 45 78 70 65 63 74 65 64 3A 20 00 .CSTR   "\r\n\r\nExpected: "   
234A   21 32 00               LD   hl,50   
234D   E5                     PUSH   hl   
234E   E5                     PUSH   hl   
234F   CD 77 10               CALL   run   
2352   2E 60 24 60 2E 68 00   .CSTR   ".`$`.h"   
2359   CD 7A 0F               CALL   printStr   
235C   0D 0A 0D 0A 41 63 74 75 61 6C 3A 20 00 .CSTR   "\r\n\r\nActual: "   
2369   E1                     POP   hl   
236A   E5                     PUSH   hl   
236B   E5                     PUSH   hl   
236C   CD 77 10               CALL   run   
236F   2E 60 24 60 2E 68 60 0D 0A 60 00 .CSTR   ".`$`.h`\r\n`"   
237A   76                     HALT      
237B                EXPECTM_3056S93:      
237B   E1                     POP   HL   
237C                          ;*Macro unroll:  test "2a= 3b= a b+= b", 5
237C   31 00 53               LD   SP,STACK   
237F   CD AE 0F               CALL   coldInit   
2382   CD CC 51               CALL   execStr   
2385   32 61 3D 20 33 62 3D 20 61 20 62 2B 3D 20 62 00 DB   "2a= 3b= a b+= b",0   
2395   E1                     POP   HL   
2396   E5                     PUSH   HL   
2397   11 05 00               LD   DE,5   
239A   B7                     OR   A   
239B   ED 52                  SBC   HL,DE   
239D   7D                     LD   A,L   
239E   B4                     OR   H   
239F   CA FE 23               JP   Z,expectM_3057S94   
23A2   CD 7A 0F               CALL   printStr   
23A5   43 6F 64 65 3A 20 32 61 3D 20 33 62 3D 20 61 20 62 2B 3D 20 62 00 .CSTR   "Code: ","2a= 3b= a b+= b"   
23BB   CD 7A 0F               CALL   printStr   
23BE   0D 0A 0D 0A 45 78 70 65 63 74 65 64 3A 20 00 .CSTR   "\r\n\r\nExpected: "   
23CD   21 05 00               LD   hl,5   
23D0   E5                     PUSH   hl   
23D1   E5                     PUSH   hl   
23D2   CD 77 10               CALL   run   
23D5   2E 60 24 60 2E 68 00   .CSTR   ".`$`.h"   
23DC   CD 7A 0F               CALL   printStr   
23DF   0D 0A 0D 0A 41 63 74 75 61 6C 3A 20 00 .CSTR   "\r\n\r\nActual: "   
23EC   E1                     POP   hl   
23ED   E5                     PUSH   hl   
23EE   E5                     PUSH   hl   
23EF   CD 77 10               CALL   run   
23F2   2E 60 24 60 2E 68 60 0D 0A 60 00 .CSTR   ".`$`.h`\r\n`"   
23FD   76                     HALT      
23FE                EXPECTM_3057S94:      
23FE   E1                     POP   HL   
23FF                          ;*Macro unroll:  test "2a= 3b= a b-= b", 1
23FF   31 00 53               LD   SP,STACK   
2402   CD AE 0F               CALL   coldInit   
2405   CD CC 51               CALL   execStr   
2408   32 61 3D 20 33 62 3D 20 61 20 62 2D 3D 20 62 00 DB   "2a= 3b= a b-= b",0   
2418   E1                     POP   HL   
2419   E5                     PUSH   HL   
241A   11 01 00               LD   DE,1   
241D   B7                     OR   A   
241E   ED 52                  SBC   HL,DE   
2420   7D                     LD   A,L   
2421   B4                     OR   H   
2422   CA 81 24               JP   Z,expectM_3058S95   
2425   CD 7A 0F               CALL   printStr   
2428   43 6F 64 65 3A 20 32 61 3D 20 33 62 3D 20 61 20 62 2D 3D 20 62 00 .CSTR   "Code: ","2a= 3b= a b-= b"   
243E   CD 7A 0F               CALL   printStr   
2441   0D 0A 0D 0A 45 78 70 65 63 74 65 64 3A 20 00 .CSTR   "\r\n\r\nExpected: "   
2450   21 01 00               LD   hl,1   
2453   E5                     PUSH   hl   
2454   E5                     PUSH   hl   
2455   CD 77 10               CALL   run   
2458   2E 60 24 60 2E 68 00   .CSTR   ".`$`.h"   
245F   CD 7A 0F               CALL   printStr   
2462   0D 0A 0D 0A 41 63 74 75 61 6C 3A 20 00 .CSTR   "\r\n\r\nActual: "   
246F   E1                     POP   hl   
2470   E5                     PUSH   hl   
2471   E5                     PUSH   hl   
2472   CD 77 10               CALL   run   
2475   2E 60 24 60 2E 68 60 0D 0A 60 00 .CSTR   ".`$`.h`\r\n`"   
2480   76                     HALT      
2481                EXPECTM_3058S95:      
2481   E1                     POP   HL   
2482                          ;*Macro unroll:  test "2a= 3b= a b*= b", 6
2482   31 00 53               LD   SP,STACK   
2485   CD AE 0F               CALL   coldInit   
2488   CD CC 51               CALL   execStr   
248B   32 61 3D 20 33 62 3D 20 61 20 62 2A 3D 20 62 00 DB   "2a= 3b= a b*= b",0   
249B   E1                     POP   HL   
249C   E5                     PUSH   HL   
249D   11 06 00               LD   DE,6   
24A0   B7                     OR   A   
24A1   ED 52                  SBC   HL,DE   
24A3   7D                     LD   A,L   
24A4   B4                     OR   H   
24A5   CA 04 25               JP   Z,expectM_3059S96   
24A8   CD 7A 0F               CALL   printStr   
24AB   43 6F 64 65 3A 20 32 61 3D 20 33 62 3D 20 61 20 62 2A 3D 20 62 00 .CSTR   "Code: ","2a= 3b= a b*= b"   
24C1   CD 7A 0F               CALL   printStr   
24C4   0D 0A 0D 0A 45 78 70 65 63 74 65 64 3A 20 00 .CSTR   "\r\n\r\nExpected: "   
24D3   21 06 00               LD   hl,6   
24D6   E5                     PUSH   hl   
24D7   E5                     PUSH   hl   
24D8   CD 77 10               CALL   run   
24DB   2E 60 24 60 2E 68 00   .CSTR   ".`$`.h"   
24E2   CD 7A 0F               CALL   printStr   
24E5   0D 0A 0D 0A 41 63 74 75 61 6C 3A 20 00 .CSTR   "\r\n\r\nActual: "   
24F2   E1                     POP   hl   
24F3   E5                     PUSH   hl   
24F4   E5                     PUSH   hl   
24F5   CD 77 10               CALL   run   
24F8   2E 60 24 60 2E 68 60 0D 0A 60 00 .CSTR   ".`$`.h`\r\n`"   
2503   76                     HALT      
2504                EXPECTM_3059S96:      
2504   E1                     POP   HL   
2505                          ;*Macro unroll:  test "2a= 6b= a b/= b", 3
2505   31 00 53               LD   SP,STACK   
2508   CD AE 0F               CALL   coldInit   
250B   CD CC 51               CALL   execStr   
250E   32 61 3D 20 36 62 3D 20 61 20 62 2F 3D 20 62 00 DB   "2a= 6b= a b/= b",0   
251E   E1                     POP   HL   
251F   E5                     PUSH   HL   
2520   11 03 00               LD   DE,3   
2523   B7                     OR   A   
2524   ED 52                  SBC   HL,DE   
2526   7D                     LD   A,L   
2527   B4                     OR   H   
2528   CA 87 25               JP   Z,expectM_3060S97   
252B   CD 7A 0F               CALL   printStr   
252E   43 6F 64 65 3A 20 32 61 3D 20 36 62 3D 20 61 20 62 2F 3D 20 62 00 .CSTR   "Code: ","2a= 6b= a b/= b"   
2544   CD 7A 0F               CALL   printStr   
2547   0D 0A 0D 0A 45 78 70 65 63 74 65 64 3A 20 00 .CSTR   "\r\n\r\nExpected: "   
2556   21 03 00               LD   hl,3   
2559   E5                     PUSH   hl   
255A   E5                     PUSH   hl   
255B   CD 77 10               CALL   run   
255E   2E 60 24 60 2E 68 00   .CSTR   ".`$`.h"   
2565   CD 7A 0F               CALL   printStr   
2568   0D 0A 0D 0A 41 63 74 75 61 6C 3A 20 00 .CSTR   "\r\n\r\nActual: "   
2575   E1                     POP   hl   
2576   E5                     PUSH   hl   
2577   E5                     PUSH   hl   
2578   CD 77 10               CALL   run   
257B   2E 60 24 60 2E 68 60 0D 0A 60 00 .CSTR   ".`$`.h`\r\n`"   
2586   76                     HALT      
2587                EXPECTM_3060S97:      
2587   E1                     POP   HL   
2588                          ;*Macro unroll:  test "$55a= $AAa&= a",0
2588   31 00 53               LD   SP,STACK   
258B   CD AE 0F               CALL   coldInit   
258E   CD CC 51               CALL   execStr   
2591   24 35 35 61 3D 20 24 41 41 61 26 3D 20 61 00 DB   "$55a= $AAa&= a",0   
25A0   E1                     POP   HL   
25A1   E5                     PUSH   HL   
25A2   11 00 00               LD   DE,0   
25A5   B7                     OR   A   
25A6   ED 52                  SBC   HL,DE   
25A8   7D                     LD   A,L   
25A9   B4                     OR   H   
25AA   CA 08 26               JP   Z,expectM_3061S98   
25AD   CD 7A 0F               CALL   printStr   
25B0   43 6F 64 65 3A 20 24 35 35 61 3D 20 24 41 41 61 26 3D 20 61 00 .CSTR   "Code: ","$55a= $AAa&= a"   
25C5   CD 7A 0F               CALL   printStr   
25C8   0D 0A 0D 0A 45 78 70 65 63 74 65 64 3A 20 00 .CSTR   "\r\n\r\nExpected: "   
25D7   21 00 00               LD   hl,0   
25DA   E5                     PUSH   hl   
25DB   E5                     PUSH   hl   
25DC   CD 77 10               CALL   run   
25DF   2E 60 24 60 2E 68 00   .CSTR   ".`$`.h"   
25E6   CD 7A 0F               CALL   printStr   
25E9   0D 0A 0D 0A 41 63 74 75 61 6C 3A 20 00 .CSTR   "\r\n\r\nActual: "   
25F6   E1                     POP   hl   
25F7   E5                     PUSH   hl   
25F8   E5                     PUSH   hl   
25F9   CD 77 10               CALL   run   
25FC   2E 60 24 60 2E 68 60 0D 0A 60 00 .CSTR   ".`$`.h`\r\n`"   
2607   76                     HALT      
2608                EXPECTM_3061S98:      
2608   E1                     POP   HL   
2609                          ;*Macro unroll:  test "$55a= $AAa|= a",$FF
2609   31 00 53               LD   SP,STACK   
260C   CD AE 0F               CALL   coldInit   
260F   CD CC 51               CALL   execStr   
2612   24 35 35 61 3D 20 24 41 41 61 7C 3D 20 61 00 DB   "$55a= $AAa|= a",0   
2621   E1                     POP   HL   
2622   E5                     PUSH   HL   
2623   11 FF 00               LD   DE,$FF   
2626   B7                     OR   A   
2627   ED 52                  SBC   HL,DE   
2629   7D                     LD   A,L   
262A   B4                     OR   H   
262B   CA 89 26               JP   Z,expectM_3062S99   
262E   CD 7A 0F               CALL   printStr   
2631   43 6F 64 65 3A 20 24 35 35 61 3D 20 24 41 41 61 7C 3D 20 61 00 .CSTR   "Code: ","$55a= $AAa|= a"   
2646   CD 7A 0F               CALL   printStr   
2649   0D 0A 0D 0A 45 78 70 65 63 74 65 64 3A 20 00 .CSTR   "\r\n\r\nExpected: "   
2658   21 FF 00               LD   hl,$FF   
265B   E5                     PUSH   hl   
265C   E5                     PUSH   hl   
265D   CD 77 10               CALL   run   
2660   2E 60 24 60 2E 68 00   .CSTR   ".`$`.h"   
2667   CD 7A 0F               CALL   printStr   
266A   0D 0A 0D 0A 41 63 74 75 61 6C 3A 20 00 .CSTR   "\r\n\r\nActual: "   
2677   E1                     POP   hl   
2678   E5                     PUSH   hl   
2679   E5                     PUSH   hl   
267A   CD 77 10               CALL   run   
267D   2E 60 24 60 2E 68 60 0D 0A 60 00 .CSTR   ".`$`.h`\r\n`"   
2688   76                     HALT      
2689                EXPECTM_3062S99:      
2689   E1                     POP   HL   
268A                          ;*Macro unroll:  test "$A5a= $AAa /x= a",$0F
268A   31 00 53               LD   SP,STACK   
268D   CD AE 0F               CALL   coldInit   
2690   CD CC 51               CALL   execStr   
2693   24 41 35 61 3D 20 24 41 41 61 20 2F 78 3D 20 61 00 DB   "$A5a= $AAa /x= a",0   
26A4   E1                     POP   HL   
26A5   E5                     PUSH   HL   
26A6   11 0F 00               LD   DE,$0F   
26A9   B7                     OR   A   
26AA   ED 52                  SBC   HL,DE   
26AC   7D                     LD   A,L   
26AD   B4                     OR   H   
26AE   CA 0E 27               JP   Z,expectM_3063S100   
26B1   CD 7A 0F               CALL   printStr   
26B4   43 6F 64 65 3A 20 24 41 35 61 3D 20 24 41 41 61 20 2F 78 3D 20 61 00 .CSTR   "Code: ","$A5a= $AAa /x= a"   
26CB   CD 7A 0F               CALL   printStr   
26CE   0D 0A 0D 0A 45 78 70 65 63 74 65 64 3A 20 00 .CSTR   "\r\n\r\nExpected: "   
26DD   21 0F 00               LD   hl,$0F   
26E0   E5                     PUSH   hl   
26E1   E5                     PUSH   hl   
26E2   CD 77 10               CALL   run   
26E5   2E 60 24 60 2E 68 00   .CSTR   ".`$`.h"   
26EC   CD 7A 0F               CALL   printStr   
26EF   0D 0A 0D 0A 41 63 74 75 61 6C 3A 20 00 .CSTR   "\r\n\r\nActual: "   
26FC   E1                     POP   hl   
26FD   E5                     PUSH   hl   
26FE   E5                     PUSH   hl   
26FF   CD 77 10               CALL   run   
2702   2E 60 24 60 2E 68 60 0D 0A 60 00 .CSTR   ".`$`.h`\r\n`"   
270D   76                     HALT      
270E                EXPECTM_3063S100:      
270E   E1                     POP   HL   
270F                          ;*Macro unroll:  test "$00AA~",$FF55
270F   31 00 53               LD   SP,STACK   
2712   CD AE 0F               CALL   coldInit   
2715   CD CC 51               CALL   execStr   
2718   24 30 30 41 41 7E 00   DB   "$00AA~",0   
271F   E1                     POP   HL   
2720   E5                     PUSH   HL   
2721   11 55 FF               LD   DE,$FF55   
2724   B7                     OR   A   
2725   ED 52                  SBC   HL,DE   
2727   7D                     LD   A,L   
2728   B4                     OR   H   
2729   CA 7F 27               JP   Z,expectM_3064S101   
272C   CD 7A 0F               CALL   printStr   
272F   43 6F 64 65 3A 20 24 30 30 41 41 7E 00 .CSTR   "Code: ","$00AA~"   
273C   CD 7A 0F               CALL   printStr   
273F   0D 0A 0D 0A 45 78 70 65 63 74 65 64 3A 20 00 .CSTR   "\r\n\r\nExpected: "   
274E   21 55 FF               LD   hl,$FF55   
2751   E5                     PUSH   hl   
2752   E5                     PUSH   hl   
2753   CD 77 10               CALL   run   
2756   2E 60 24 60 2E 68 00   .CSTR   ".`$`.h"   
275D   CD 7A 0F               CALL   printStr   
2760   0D 0A 0D 0A 41 63 74 75 61 6C 3A 20 00 .CSTR   "\r\n\r\nActual: "   
276D   E1                     POP   hl   
276E   E5                     PUSH   hl   
276F   E5                     PUSH   hl   
2770   CD 77 10               CALL   run   
2773   2E 60 24 60 2E 68 60 0D 0A 60 00 .CSTR   ".`$`.h`\r\n`"   
277E   76                     HALT      
277F                EXPECTM_3064S101:      
277F   E1                     POP   HL   
2780                          ;*Macro unroll:  test "$AAAAa= a~= a",$5555
2780   31 00 53               LD   SP,STACK   
2783   CD AE 0F               CALL   coldInit   
2786   CD CC 51               CALL   execStr   
2789   24 41 41 41 41 61 3D 20 61 7E 3D 20 61 00 DB   "$AAAAa= a~= a",0   
2797   E1                     POP   HL   
2798   E5                     PUSH   HL   
2799   11 55 55               LD   DE,$5555   
279C   B7                     OR   A   
279D   ED 52                  SBC   HL,DE   
279F   7D                     LD   A,L   
27A0   B4                     OR   H   
27A1   CA FE 27               JP   Z,expectM_3065S102   
27A4   CD 7A 0F               CALL   printStr   
27A7   43 6F 64 65 3A 20 24 41 41 41 41 61 3D 20 61 7E 3D 20 61 00 .CSTR   "Code: ","$AAAAa= a~= a"   
27BB   CD 7A 0F               CALL   printStr   
27BE   0D 0A 0D 0A 45 78 70 65 63 74 65 64 3A 20 00 .CSTR   "\r\n\r\nExpected: "   
27CD   21 55 55               LD   hl,$5555   
27D0   E5                     PUSH   hl   
27D1   E5                     PUSH   hl   
27D2   CD 77 10               CALL   run   
27D5   2E 60 24 60 2E 68 00   .CSTR   ".`$`.h"   
27DC   CD 7A 0F               CALL   printStr   
27DF   0D 0A 0D 0A 41 63 74 75 61 6C 3A 20 00 .CSTR   "\r\n\r\nActual: "   
27EC   E1                     POP   hl   
27ED   E5                     PUSH   hl   
27EE   E5                     PUSH   hl   
27EF   CD 77 10               CALL   run   
27F2   2E 60 24 60 2E 68 60 0D 0A 60 00 .CSTR   ".`$`.h`\r\n`"   
27FD   76                     HALT      
27FE                EXPECTM_3065S102:      
27FE   E1                     POP   HL   
27FF                          ;*Macro unroll:  test "3x= 1 x <<= x", 6
27FF   31 00 53               LD   SP,STACK   
2802   CD AE 0F               CALL   coldInit   
2805   CD CC 51               CALL   execStr   
2808   33 78 3D 20 31 20 78 20 3C 3C 3D 20 78 00 DB   "3x= 1 x <<= x",0   
2816   E1                     POP   HL   
2817   E5                     PUSH   HL   
2818   11 06 00               LD   DE,6   
281B   B7                     OR   A   
281C   ED 52                  SBC   HL,DE   
281E   7D                     LD   A,L   
281F   B4                     OR   H   
2820   CA 7D 28               JP   Z,expectM_3066S103   
2823   CD 7A 0F               CALL   printStr   
2826   43 6F 64 65 3A 20 33 78 3D 20 31 20 78 20 3C 3C 3D 20 78 00 .CSTR   "Code: ","3x= 1 x <<= x"   
283A   CD 7A 0F               CALL   printStr   
283D   0D 0A 0D 0A 45 78 70 65 63 74 65 64 3A 20 00 .CSTR   "\r\n\r\nExpected: "   
284C   21 06 00               LD   hl,6   
284F   E5                     PUSH   hl   
2850   E5                     PUSH   hl   
2851   CD 77 10               CALL   run   
2854   2E 60 24 60 2E 68 00   .CSTR   ".`$`.h"   
285B   CD 7A 0F               CALL   printStr   
285E   0D 0A 0D 0A 41 63 74 75 61 6C 3A 20 00 .CSTR   "\r\n\r\nActual: "   
286B   E1                     POP   hl   
286C   E5                     PUSH   hl   
286D   E5                     PUSH   hl   
286E   CD 77 10               CALL   run   
2871   2E 60 24 60 2E 68 60 0D 0A 60 00 .CSTR   ".`$`.h`\r\n`"   
287C   76                     HALT      
287D                EXPECTM_3066S103:      
287D   E1                     POP   HL   
287E                          ;*Macro unroll:  test "10x= 1 x >>= x", 5
287E   31 00 53               LD   SP,STACK   
2881   CD AE 0F               CALL   coldInit   
2884   CD CC 51               CALL   execStr   
2887   31 30 78 3D 20 31 20 78 20 3E 3E 3D 20 78 00 DB   "10x= 1 x >>= x",0   
2896   E1                     POP   HL   
2897   E5                     PUSH   HL   
2898   11 05 00               LD   DE,5   
289B   B7                     OR   A   
289C   ED 52                  SBC   HL,DE   
289E   7D                     LD   A,L   
289F   B4                     OR   H   
28A0   CA FE 28               JP   Z,expectM_3067S104   
28A3   CD 7A 0F               CALL   printStr   
28A6   43 6F 64 65 3A 20 31 30 78 3D 20 31 20 78 20 3E 3E 3D 20 78 00 .CSTR   "Code: ","10x= 1 x >>= x"   
28BB   CD 7A 0F               CALL   printStr   
28BE   0D 0A 0D 0A 45 78 70 65 63 74 65 64 3A 20 00 .CSTR   "\r\n\r\nExpected: "   
28CD   21 05 00               LD   hl,5   
28D0   E5                     PUSH   hl   
28D1   E5                     PUSH   hl   
28D2   CD 77 10               CALL   run   
28D5   2E 60 24 60 2E 68 00   .CSTR   ".`$`.h"   
28DC   CD 7A 0F               CALL   printStr   
28DF   0D 0A 0D 0A 41 63 74 75 61 6C 3A 20 00 .CSTR   "\r\n\r\nActual: "   
28EC   E1                     POP   hl   
28ED   E5                     PUSH   hl   
28EE   E5                     PUSH   hl   
28EF   CD 77 10               CALL   run   
28F2   2E 60 24 60 2E 68 60 0D 0A 60 00 .CSTR   ".`$`.h`\r\n`"   
28FD   76                     HALT      
28FE                EXPECTM_3067S104:      
28FE   E1                     POP   HL   
28FF                          ;*Macro unroll:  test "7 3 / /re", 1
28FF   31 00 53               LD   SP,STACK   
2902   CD AE 0F               CALL   coldInit   
2905   CD CC 51               CALL   execStr   
2908   37 20 33 20 2F 20 2F 72 65 00 DB   "7 3 / /re",0   
2912   E1                     POP   HL   
2913   E5                     PUSH   HL   
2914   11 01 00               LD   DE,1   
2917   B7                     OR   A   
2918   ED 52                  SBC   HL,DE   
291A   7D                     LD   A,L   
291B   B4                     OR   H   
291C   CA 75 29               JP   Z,expectM_3068S105   
291F   CD 7A 0F               CALL   printStr   
2922   43 6F 64 65 3A 20 37 20 33 20 2F 20 2F 72 65 00 .CSTR   "Code: ","7 3 / /re"   
2932   CD 7A 0F               CALL   printStr   
2935   0D 0A 0D 0A 45 78 70 65 63 74 65 64 3A 20 00 .CSTR   "\r\n\r\nExpected: "   
2944   21 01 00               LD   hl,1   
2947   E5                     PUSH   hl   
2948   E5                     PUSH   hl   
2949   CD 77 10               CALL   run   
294C   2E 60 24 60 2E 68 00   .CSTR   ".`$`.h"   
2953   CD 7A 0F               CALL   printStr   
2956   0D 0A 0D 0A 41 63 74 75 61 6C 3A 20 00 .CSTR   "\r\n\r\nActual: "   
2963   E1                     POP   hl   
2964   E5                     PUSH   hl   
2965   E5                     PUSH   hl   
2966   CD 77 10               CALL   run   
2969   2E 60 24 60 2E 68 60 0D 0A 60 00 .CSTR   ".`$`.h`\r\n`"   
2974   76                     HALT      
2975                EXPECTM_3068S105:      
2975   E1                     POP   HL   
2976                          ;*Macro unroll:  test "7 3 /", 2
2976   31 00 53               LD   SP,STACK   
2979   CD AE 0F               CALL   coldInit   
297C   CD CC 51               CALL   execStr   
297F   37 20 33 20 2F 00      DB   "7 3 /",0   
2985   E1                     POP   HL   
2986   E5                     PUSH   HL   
2987   11 02 00               LD   DE,2   
298A   B7                     OR   A   
298B   ED 52                  SBC   HL,DE   
298D   7D                     LD   A,L   
298E   B4                     OR   H   
298F   CA E4 29               JP   Z,expectM_3069S106   
2992   CD 7A 0F               CALL   printStr   
2995   43 6F 64 65 3A 20 37 20 33 20 2F 00 .CSTR   "Code: ","7 3 /"   
29A1   CD 7A 0F               CALL   printStr   
29A4   0D 0A 0D 0A 45 78 70 65 63 74 65 64 3A 20 00 .CSTR   "\r\n\r\nExpected: "   
29B3   21 02 00               LD   hl,2   
29B6   E5                     PUSH   hl   
29B7   E5                     PUSH   hl   
29B8   CD 77 10               CALL   run   
29BB   2E 60 24 60 2E 68 00   .CSTR   ".`$`.h"   
29C2   CD 7A 0F               CALL   printStr   
29C5   0D 0A 0D 0A 41 63 74 75 61 6C 3A 20 00 .CSTR   "\r\n\r\nActual: "   
29D2   E1                     POP   hl   
29D3   E5                     PUSH   hl   
29D4   E5                     PUSH   hl   
29D5   CD 77 10               CALL   run   
29D8   2E 60 24 60 2E 68 60 0D 0A 60 00 .CSTR   ".`$`.h`\r\n`"   
29E3   76                     HALT      
29E4                EXPECTM_3069S106:      
29E4   E1                     POP   HL   
29E5                          ;*Macro unroll:  test "2 3 ==", FALSE
29E5   31 00 53               LD   SP,STACK   
29E8   CD AE 0F               CALL   coldInit   
29EB   CD CC 51               CALL   execStr   
29EE   32 20 33 20 3D 3D 00   DB   "2 3 ==",0   
29F5   E1                     POP   HL   
29F6   E5                     PUSH   HL   
29F7   11 00 00               LD   DE,FALSE   
29FA   B7                     OR   A   
29FB   ED 52                  SBC   HL,DE   
29FD   7D                     LD   A,L   
29FE   B4                     OR   H   
29FF   CA 55 2A               JP   Z,expectM_3070S107   
2A02   CD 7A 0F               CALL   printStr   
2A05   43 6F 64 65 3A 20 32 20 33 20 3D 3D 00 .CSTR   "Code: ","2 3 =="   
2A12   CD 7A 0F               CALL   printStr   
2A15   0D 0A 0D 0A 45 78 70 65 63 74 65 64 3A 20 00 .CSTR   "\r\n\r\nExpected: "   
2A24   21 00 00               LD   hl,FALSE   
2A27   E5                     PUSH   hl   
2A28   E5                     PUSH   hl   
2A29   CD 77 10               CALL   run   
2A2C   2E 60 24 60 2E 68 00   .CSTR   ".`$`.h"   
2A33   CD 7A 0F               CALL   printStr   
2A36   0D 0A 0D 0A 41 63 74 75 61 6C 3A 20 00 .CSTR   "\r\n\r\nActual: "   
2A43   E1                     POP   hl   
2A44   E5                     PUSH   hl   
2A45   E5                     PUSH   hl   
2A46   CD 77 10               CALL   run   
2A49   2E 60 24 60 2E 68 60 0D 0A 60 00 .CSTR   ".`$`.h`\r\n`"   
2A54   76                     HALT      
2A55                EXPECTM_3070S107:      
2A55   E1                     POP   HL   
2A56                          ;*Macro unroll:  test "3 3 ==", TRUE
2A56   31 00 53               LD   SP,STACK   
2A59   CD AE 0F               CALL   coldInit   
2A5C   CD CC 51               CALL   execStr   
2A5F   33 20 33 20 3D 3D 00   DB   "3 3 ==",0   
2A66   E1                     POP   HL   
2A67   E5                     PUSH   HL   
2A68   11 FF FF               LD   DE,TRUE   
2A6B   B7                     OR   A   
2A6C   ED 52                  SBC   HL,DE   
2A6E   7D                     LD   A,L   
2A6F   B4                     OR   H   
2A70   CA C6 2A               JP   Z,expectM_3071S108   
2A73   CD 7A 0F               CALL   printStr   
2A76   43 6F 64 65 3A 20 33 20 33 20 3D 3D 00 .CSTR   "Code: ","3 3 =="   
2A83   CD 7A 0F               CALL   printStr   
2A86   0D 0A 0D 0A 45 78 70 65 63 74 65 64 3A 20 00 .CSTR   "\r\n\r\nExpected: "   
2A95   21 FF FF               LD   hl,TRUE   
2A98   E5                     PUSH   hl   
2A99   E5                     PUSH   hl   
2A9A   CD 77 10               CALL   run   
2A9D   2E 60 24 60 2E 68 00   .CSTR   ".`$`.h"   
2AA4   CD 7A 0F               CALL   printStr   
2AA7   0D 0A 0D 0A 41 63 74 75 61 6C 3A 20 00 .CSTR   "\r\n\r\nActual: "   
2AB4   E1                     POP   hl   
2AB5   E5                     PUSH   hl   
2AB6   E5                     PUSH   hl   
2AB7   CD 77 10               CALL   run   
2ABA   2E 60 24 60 2E 68 60 0D 0A 60 00 .CSTR   ".`$`.h`\r\n`"   
2AC5   76                     HALT      
2AC6                EXPECTM_3071S108:      
2AC6   E1                     POP   HL   
2AC7                          ;*Macro unroll:  test "1 2 <", TRUE
2AC7   31 00 53               LD   SP,STACK   
2ACA   CD AE 0F               CALL   coldInit   
2ACD   CD CC 51               CALL   execStr   
2AD0   31 20 32 20 3C 00      DB   "1 2 <",0   
2AD6   E1                     POP   HL   
2AD7   E5                     PUSH   HL   
2AD8   11 FF FF               LD   DE,TRUE   
2ADB   B7                     OR   A   
2ADC   ED 52                  SBC   HL,DE   
2ADE   7D                     LD   A,L   
2ADF   B4                     OR   H   
2AE0   CA 35 2B               JP   Z,expectM_3072S109   
2AE3   CD 7A 0F               CALL   printStr   
2AE6   43 6F 64 65 3A 20 31 20 32 20 3C 00 .CSTR   "Code: ","1 2 <"   
2AF2   CD 7A 0F               CALL   printStr   
2AF5   0D 0A 0D 0A 45 78 70 65 63 74 65 64 3A 20 00 .CSTR   "\r\n\r\nExpected: "   
2B04   21 FF FF               LD   hl,TRUE   
2B07   E5                     PUSH   hl   
2B08   E5                     PUSH   hl   
2B09   CD 77 10               CALL   run   
2B0C   2E 60 24 60 2E 68 00   .CSTR   ".`$`.h"   
2B13   CD 7A 0F               CALL   printStr   
2B16   0D 0A 0D 0A 41 63 74 75 61 6C 3A 20 00 .CSTR   "\r\n\r\nActual: "   
2B23   E1                     POP   hl   
2B24   E5                     PUSH   hl   
2B25   E5                     PUSH   hl   
2B26   CD 77 10               CALL   run   
2B29   2E 60 24 60 2E 68 60 0D 0A 60 00 .CSTR   ".`$`.h`\r\n`"   
2B34   76                     HALT      
2B35                EXPECTM_3072S109:      
2B35   E1                     POP   HL   
2B36                          ;*Macro unroll:  test "2 1 <", FALSE
2B36   31 00 53               LD   SP,STACK   
2B39   CD AE 0F               CALL   coldInit   
2B3C   CD CC 51               CALL   execStr   
2B3F   32 20 31 20 3C 00      DB   "2 1 <",0   
2B45   E1                     POP   HL   
2B46   E5                     PUSH   HL   
2B47   11 00 00               LD   DE,FALSE   
2B4A   B7                     OR   A   
2B4B   ED 52                  SBC   HL,DE   
2B4D   7D                     LD   A,L   
2B4E   B4                     OR   H   
2B4F   CA A4 2B               JP   Z,expectM_3073S110   
2B52   CD 7A 0F               CALL   printStr   
2B55   43 6F 64 65 3A 20 32 20 31 20 3C 00 .CSTR   "Code: ","2 1 <"   
2B61   CD 7A 0F               CALL   printStr   
2B64   0D 0A 0D 0A 45 78 70 65 63 74 65 64 3A 20 00 .CSTR   "\r\n\r\nExpected: "   
2B73   21 00 00               LD   hl,FALSE   
2B76   E5                     PUSH   hl   
2B77   E5                     PUSH   hl   
2B78   CD 77 10               CALL   run   
2B7B   2E 60 24 60 2E 68 00   .CSTR   ".`$`.h"   
2B82   CD 7A 0F               CALL   printStr   
2B85   0D 0A 0D 0A 41 63 74 75 61 6C 3A 20 00 .CSTR   "\r\n\r\nActual: "   
2B92   E1                     POP   hl   
2B93   E5                     PUSH   hl   
2B94   E5                     PUSH   hl   
2B95   CD 77 10               CALL   run   
2B98   2E 60 24 60 2E 68 60 0D 0A 60 00 .CSTR   ".`$`.h`\r\n`"   
2BA3   76                     HALT      
2BA4                EXPECTM_3073S110:      
2BA4   E1                     POP   HL   
2BA5                          ;*Macro unroll:  test "2 3 <", TRUE
2BA5   31 00 53               LD   SP,STACK   
2BA8   CD AE 0F               CALL   coldInit   
2BAB   CD CC 51               CALL   execStr   
2BAE   32 20 33 20 3C 00      DB   "2 3 <",0   
2BB4   E1                     POP   HL   
2BB5   E5                     PUSH   HL   
2BB6   11 FF FF               LD   DE,TRUE   
2BB9   B7                     OR   A   
2BBA   ED 52                  SBC   HL,DE   
2BBC   7D                     LD   A,L   
2BBD   B4                     OR   H   
2BBE   CA 13 2C               JP   Z,expectM_3074S111   
2BC1   CD 7A 0F               CALL   printStr   
2BC4   43 6F 64 65 3A 20 32 20 33 20 3C 00 .CSTR   "Code: ","2 3 <"   
2BD0   CD 7A 0F               CALL   printStr   
2BD3   0D 0A 0D 0A 45 78 70 65 63 74 65 64 3A 20 00 .CSTR   "\r\n\r\nExpected: "   
2BE2   21 FF FF               LD   hl,TRUE   
2BE5   E5                     PUSH   hl   
2BE6   E5                     PUSH   hl   
2BE7   CD 77 10               CALL   run   
2BEA   2E 60 24 60 2E 68 00   .CSTR   ".`$`.h"   
2BF1   CD 7A 0F               CALL   printStr   
2BF4   0D 0A 0D 0A 41 63 74 75 61 6C 3A 20 00 .CSTR   "\r\n\r\nActual: "   
2C01   E1                     POP   hl   
2C02   E5                     PUSH   hl   
2C03   E5                     PUSH   hl   
2C04   CD 77 10               CALL   run   
2C07   2E 60 24 60 2E 68 60 0D 0A 60 00 .CSTR   ".`$`.h`\r\n`"   
2C12   76                     HALT      
2C13                EXPECTM_3074S111:      
2C13   E1                     POP   HL   
2C14                          ;*Macro unroll:  test "3 3 <", FALSE
2C14   31 00 53               LD   SP,STACK   
2C17   CD AE 0F               CALL   coldInit   
2C1A   CD CC 51               CALL   execStr   
2C1D   33 20 33 20 3C 00      DB   "3 3 <",0   
2C23   E1                     POP   HL   
2C24   E5                     PUSH   HL   
2C25   11 00 00               LD   DE,FALSE   
2C28   B7                     OR   A   
2C29   ED 52                  SBC   HL,DE   
2C2B   7D                     LD   A,L   
2C2C   B4                     OR   H   
2C2D   CA 82 2C               JP   Z,expectM_3075S112   
2C30   CD 7A 0F               CALL   printStr   
2C33   43 6F 64 65 3A 20 33 20 33 20 3C 00 .CSTR   "Code: ","3 3 <"   
2C3F   CD 7A 0F               CALL   printStr   
2C42   0D 0A 0D 0A 45 78 70 65 63 74 65 64 3A 20 00 .CSTR   "\r\n\r\nExpected: "   
2C51   21 00 00               LD   hl,FALSE   
2C54   E5                     PUSH   hl   
2C55   E5                     PUSH   hl   
2C56   CD 77 10               CALL   run   
2C59   2E 60 24 60 2E 68 00   .CSTR   ".`$`.h"   
2C60   CD 7A 0F               CALL   printStr   
2C63   0D 0A 0D 0A 41 63 74 75 61 6C 3A 20 00 .CSTR   "\r\n\r\nActual: "   
2C70   E1                     POP   hl   
2C71   E5                     PUSH   hl   
2C72   E5                     PUSH   hl   
2C73   CD 77 10               CALL   run   
2C76   2E 60 24 60 2E 68 60 0D 0A 60 00 .CSTR   ".`$`.h`\r\n`"   
2C81   76                     HALT      
2C82                EXPECTM_3075S112:      
2C82   E1                     POP   HL   
2C83                          ;*Macro unroll:  test "1 2 >", FALSE
2C83   31 00 53               LD   SP,STACK   
2C86   CD AE 0F               CALL   coldInit   
2C89   CD CC 51               CALL   execStr   
2C8C   31 20 32 20 3E 00      DB   "1 2 >",0   
2C92   E1                     POP   HL   
2C93   E5                     PUSH   HL   
2C94   11 00 00               LD   DE,FALSE   
2C97   B7                     OR   A   
2C98   ED 52                  SBC   HL,DE   
2C9A   7D                     LD   A,L   
2C9B   B4                     OR   H   
2C9C   CA F1 2C               JP   Z,expectM_3076S113   
2C9F   CD 7A 0F               CALL   printStr   
2CA2   43 6F 64 65 3A 20 31 20 32 20 3E 00 .CSTR   "Code: ","1 2 >"   
2CAE   CD 7A 0F               CALL   printStr   
2CB1   0D 0A 0D 0A 45 78 70 65 63 74 65 64 3A 20 00 .CSTR   "\r\n\r\nExpected: "   
2CC0   21 00 00               LD   hl,FALSE   
2CC3   E5                     PUSH   hl   
2CC4   E5                     PUSH   hl   
2CC5   CD 77 10               CALL   run   
2CC8   2E 60 24 60 2E 68 00   .CSTR   ".`$`.h"   
2CCF   CD 7A 0F               CALL   printStr   
2CD2   0D 0A 0D 0A 41 63 74 75 61 6C 3A 20 00 .CSTR   "\r\n\r\nActual: "   
2CDF   E1                     POP   hl   
2CE0   E5                     PUSH   hl   
2CE1   E5                     PUSH   hl   
2CE2   CD 77 10               CALL   run   
2CE5   2E 60 24 60 2E 68 60 0D 0A 60 00 .CSTR   ".`$`.h`\r\n`"   
2CF0   76                     HALT      
2CF1                EXPECTM_3076S113:      
2CF1   E1                     POP   HL   
2CF2                          ;*Macro unroll:  test "2 1 >", TRUE
2CF2   31 00 53               LD   SP,STACK   
2CF5   CD AE 0F               CALL   coldInit   
2CF8   CD CC 51               CALL   execStr   
2CFB   32 20 31 20 3E 00      DB   "2 1 >",0   
2D01   E1                     POP   HL   
2D02   E5                     PUSH   HL   
2D03   11 FF FF               LD   DE,TRUE   
2D06   B7                     OR   A   
2D07   ED 52                  SBC   HL,DE   
2D09   7D                     LD   A,L   
2D0A   B4                     OR   H   
2D0B   CA 60 2D               JP   Z,expectM_3077S114   
2D0E   CD 7A 0F               CALL   printStr   
2D11   43 6F 64 65 3A 20 32 20 31 20 3E 00 .CSTR   "Code: ","2 1 >"   
2D1D   CD 7A 0F               CALL   printStr   
2D20   0D 0A 0D 0A 45 78 70 65 63 74 65 64 3A 20 00 .CSTR   "\r\n\r\nExpected: "   
2D2F   21 FF FF               LD   hl,TRUE   
2D32   E5                     PUSH   hl   
2D33   E5                     PUSH   hl   
2D34   CD 77 10               CALL   run   
2D37   2E 60 24 60 2E 68 00   .CSTR   ".`$`.h"   
2D3E   CD 7A 0F               CALL   printStr   
2D41   0D 0A 0D 0A 41 63 74 75 61 6C 3A 20 00 .CSTR   "\r\n\r\nActual: "   
2D4E   E1                     POP   hl   
2D4F   E5                     PUSH   hl   
2D50   E5                     PUSH   hl   
2D51   CD 77 10               CALL   run   
2D54   2E 60 24 60 2E 68 60 0D 0A 60 00 .CSTR   ".`$`.h`\r\n`"   
2D5F   76                     HALT      
2D60                EXPECTM_3077S114:      
2D60   E1                     POP   HL   
2D61                          ;*Macro unroll:  test "3 3 >", FALSE
2D61   31 00 53               LD   SP,STACK   
2D64   CD AE 0F               CALL   coldInit   
2D67   CD CC 51               CALL   execStr   
2D6A   33 20 33 20 3E 00      DB   "3 3 >",0   
2D70   E1                     POP   HL   
2D71   E5                     PUSH   HL   
2D72   11 00 00               LD   DE,FALSE   
2D75   B7                     OR   A   
2D76   ED 52                  SBC   HL,DE   
2D78   7D                     LD   A,L   
2D79   B4                     OR   H   
2D7A   CA CF 2D               JP   Z,expectM_3078S115   
2D7D   CD 7A 0F               CALL   printStr   
2D80   43 6F 64 65 3A 20 33 20 33 20 3E 00 .CSTR   "Code: ","3 3 >"   
2D8C   CD 7A 0F               CALL   printStr   
2D8F   0D 0A 0D 0A 45 78 70 65 63 74 65 64 3A 20 00 .CSTR   "\r\n\r\nExpected: "   
2D9E   21 00 00               LD   hl,FALSE   
2DA1   E5                     PUSH   hl   
2DA2   E5                     PUSH   hl   
2DA3   CD 77 10               CALL   run   
2DA6   2E 60 24 60 2E 68 00   .CSTR   ".`$`.h"   
2DAD   CD 7A 0F               CALL   printStr   
2DB0   0D 0A 0D 0A 41 63 74 75 61 6C 3A 20 00 .CSTR   "\r\n\r\nActual: "   
2DBD   E1                     POP   hl   
2DBE   E5                     PUSH   hl   
2DBF   E5                     PUSH   hl   
2DC0   CD 77 10               CALL   run   
2DC3   2E 60 24 60 2E 68 60 0D 0A 60 00 .CSTR   ".`$`.h`\r\n`"   
2DCE   76                     HALT      
2DCF                EXPECTM_3078S115:      
2DCF   E1                     POP   HL   
2DD0                          ;*Macro unroll:  test "4 3 >", TRUE
2DD0   31 00 53               LD   SP,STACK   
2DD3   CD AE 0F               CALL   coldInit   
2DD6   CD CC 51               CALL   execStr   
2DD9   34 20 33 20 3E 00      DB   "4 3 >",0   
2DDF   E1                     POP   HL   
2DE0   E5                     PUSH   HL   
2DE1   11 FF FF               LD   DE,TRUE   
2DE4   B7                     OR   A   
2DE5   ED 52                  SBC   HL,DE   
2DE7   7D                     LD   A,L   
2DE8   B4                     OR   H   
2DE9   CA 3E 2E               JP   Z,expectM_3079S116   
2DEC   CD 7A 0F               CALL   printStr   
2DEF   43 6F 64 65 3A 20 34 20 33 20 3E 00 .CSTR   "Code: ","4 3 >"   
2DFB   CD 7A 0F               CALL   printStr   
2DFE   0D 0A 0D 0A 45 78 70 65 63 74 65 64 3A 20 00 .CSTR   "\r\n\r\nExpected: "   
2E0D   21 FF FF               LD   hl,TRUE   
2E10   E5                     PUSH   hl   
2E11   E5                     PUSH   hl   
2E12   CD 77 10               CALL   run   
2E15   2E 60 24 60 2E 68 00   .CSTR   ".`$`.h"   
2E1C   CD 7A 0F               CALL   printStr   
2E1F   0D 0A 0D 0A 41 63 74 75 61 6C 3A 20 00 .CSTR   "\r\n\r\nActual: "   
2E2C   E1                     POP   hl   
2E2D   E5                     PUSH   hl   
2E2E   E5                     PUSH   hl   
2E2F   CD 77 10               CALL   run   
2E32   2E 60 24 60 2E 68 60 0D 0A 60 00 .CSTR   ".`$`.h`\r\n`"   
2E3D   76                     HALT      
2E3E                EXPECTM_3079S116:      
2E3E   E1                     POP   HL   
2E3F                          ;*Macro unroll:  test "2 2 <=", TRUE
2E3F   31 00 53               LD   SP,STACK   
2E42   CD AE 0F               CALL   coldInit   
2E45   CD CC 51               CALL   execStr   
2E48   32 20 32 20 3C 3D 00   DB   "2 2 <=",0   
2E4F   E1                     POP   HL   
2E50   E5                     PUSH   HL   
2E51   11 FF FF               LD   DE,TRUE   
2E54   B7                     OR   A   
2E55   ED 52                  SBC   HL,DE   
2E57   7D                     LD   A,L   
2E58   B4                     OR   H   
2E59   CA AF 2E               JP   Z,expectM_3080S117   
2E5C   CD 7A 0F               CALL   printStr   
2E5F   43 6F 64 65 3A 20 32 20 32 20 3C 3D 00 .CSTR   "Code: ","2 2 <="   
2E6C   CD 7A 0F               CALL   printStr   
2E6F   0D 0A 0D 0A 45 78 70 65 63 74 65 64 3A 20 00 .CSTR   "\r\n\r\nExpected: "   
2E7E   21 FF FF               LD   hl,TRUE   
2E81   E5                     PUSH   hl   
2E82   E5                     PUSH   hl   
2E83   CD 77 10               CALL   run   
2E86   2E 60 24 60 2E 68 00   .CSTR   ".`$`.h"   
2E8D   CD 7A 0F               CALL   printStr   
2E90   0D 0A 0D 0A 41 63 74 75 61 6C 3A 20 00 .CSTR   "\r\n\r\nActual: "   
2E9D   E1                     POP   hl   
2E9E   E5                     PUSH   hl   
2E9F   E5                     PUSH   hl   
2EA0   CD 77 10               CALL   run   
2EA3   2E 60 24 60 2E 68 60 0D 0A 60 00 .CSTR   ".`$`.h`\r\n`"   
2EAE   76                     HALT      
2EAF                EXPECTM_3080S117:      
2EAF   E1                     POP   HL   
2EB0                          ;*Macro unroll:  test "2 2 >=", TRUE
2EB0   31 00 53               LD   SP,STACK   
2EB3   CD AE 0F               CALL   coldInit   
2EB6   CD CC 51               CALL   execStr   
2EB9   32 20 32 20 3E 3D 00   DB   "2 2 >=",0   
2EC0   E1                     POP   HL   
2EC1   E5                     PUSH   HL   
2EC2   11 FF FF               LD   DE,TRUE   
2EC5   B7                     OR   A   
2EC6   ED 52                  SBC   HL,DE   
2EC8   7D                     LD   A,L   
2EC9   B4                     OR   H   
2ECA   CA 20 2F               JP   Z,expectM_3081S118   
2ECD   CD 7A 0F               CALL   printStr   
2ED0   43 6F 64 65 3A 20 32 20 32 20 3E 3D 00 .CSTR   "Code: ","2 2 >="   
2EDD   CD 7A 0F               CALL   printStr   
2EE0   0D 0A 0D 0A 45 78 70 65 63 74 65 64 3A 20 00 .CSTR   "\r\n\r\nExpected: "   
2EEF   21 FF FF               LD   hl,TRUE   
2EF2   E5                     PUSH   hl   
2EF3   E5                     PUSH   hl   
2EF4   CD 77 10               CALL   run   
2EF7   2E 60 24 60 2E 68 00   .CSTR   ".`$`.h"   
2EFE   CD 7A 0F               CALL   printStr   
2F01   0D 0A 0D 0A 41 63 74 75 61 6C 3A 20 00 .CSTR   "\r\n\r\nActual: "   
2F0E   E1                     POP   hl   
2F0F   E5                     PUSH   hl   
2F10   E5                     PUSH   hl   
2F11   CD 77 10               CALL   run   
2F14   2E 60 24 60 2E 68 60 0D 0A 60 00 .CSTR   ".`$`.h`\r\n`"   
2F1F   76                     HALT      
2F20                EXPECTM_3081S118:      
2F20   E1                     POP   HL   
2F21                          ;*Macro unroll:  test "3 1 <<", 6
2F21   31 00 53               LD   SP,STACK   
2F24   CD AE 0F               CALL   coldInit   
2F27   CD CC 51               CALL   execStr   
2F2A   33 20 31 20 3C 3C 00   DB   "3 1 <<",0   
2F31   E1                     POP   HL   
2F32   E5                     PUSH   HL   
2F33   11 06 00               LD   DE,6   
2F36   B7                     OR   A   
2F37   ED 52                  SBC   HL,DE   
2F39   7D                     LD   A,L   
2F3A   B4                     OR   H   
2F3B   CA 91 2F               JP   Z,expectM_3082S119   
2F3E   CD 7A 0F               CALL   printStr   
2F41   43 6F 64 65 3A 20 33 20 31 20 3C 3C 00 .CSTR   "Code: ","3 1 <<"   
2F4E   CD 7A 0F               CALL   printStr   
2F51   0D 0A 0D 0A 45 78 70 65 63 74 65 64 3A 20 00 .CSTR   "\r\n\r\nExpected: "   
2F60   21 06 00               LD   hl,6   
2F63   E5                     PUSH   hl   
2F64   E5                     PUSH   hl   
2F65   CD 77 10               CALL   run   
2F68   2E 60 24 60 2E 68 00   .CSTR   ".`$`.h"   
2F6F   CD 7A 0F               CALL   printStr   
2F72   0D 0A 0D 0A 41 63 74 75 61 6C 3A 20 00 .CSTR   "\r\n\r\nActual: "   
2F7F   E1                     POP   hl   
2F80   E5                     PUSH   hl   
2F81   E5                     PUSH   hl   
2F82   CD 77 10               CALL   run   
2F85   2E 60 24 60 2E 68 60 0D 0A 60 00 .CSTR   ".`$`.h`\r\n`"   
2F90   76                     HALT      
2F91                EXPECTM_3082S119:      
2F91   E1                     POP   HL   
2F92                          ;*Macro unroll:  test "10 1 >>", 5
2F92   31 00 53               LD   SP,STACK   
2F95   CD AE 0F               CALL   coldInit   
2F98   CD CC 51               CALL   execStr   
2F9B   31 30 20 31 20 3E 3E 00 DB   "10 1 >>",0   
2FA3   E1                     POP   HL   
2FA4   E5                     PUSH   HL   
2FA5   11 05 00               LD   DE,5   
2FA8   B7                     OR   A   
2FA9   ED 52                  SBC   HL,DE   
2FAB   7D                     LD   A,L   
2FAC   B4                     OR   H   
2FAD   CA 04 30               JP   Z,expectM_3083S120   
2FB0   CD 7A 0F               CALL   printStr   
2FB3   43 6F 64 65 3A 20 31 30 20 31 20 3E 3E 00 .CSTR   "Code: ","10 1 >>"   
2FC1   CD 7A 0F               CALL   printStr   
2FC4   0D 0A 0D 0A 45 78 70 65 63 74 65 64 3A 20 00 .CSTR   "\r\n\r\nExpected: "   
2FD3   21 05 00               LD   hl,5   
2FD6   E5                     PUSH   hl   
2FD7   E5                     PUSH   hl   
2FD8   CD 77 10               CALL   run   
2FDB   2E 60 24 60 2E 68 00   .CSTR   ".`$`.h"   
2FE2   CD 7A 0F               CALL   printStr   
2FE5   0D 0A 0D 0A 41 63 74 75 61 6C 3A 20 00 .CSTR   "\r\n\r\nActual: "   
2FF2   E1                     POP   hl   
2FF3   E5                     PUSH   hl   
2FF4   E5                     PUSH   hl   
2FF5   CD 77 10               CALL   run   
2FF8   2E 60 24 60 2E 68 60 0D 0A 60 00 .CSTR   ".`$`.h`\r\n`"   
3003   76                     HALT      
3004                EXPECTM_3083S120:      
3004   E1                     POP   HL   
3005                          ;*Macro unroll:  test "1 x = x", 1
3005   31 00 53               LD   SP,STACK   
3008   CD AE 0F               CALL   coldInit   
300B   CD CC 51               CALL   execStr   
300E   31 20 78 20 3D 20 78 00 DB   "1 x = x",0   
3016   E1                     POP   HL   
3017   E5                     PUSH   HL   
3018   11 01 00               LD   DE,1   
301B   B7                     OR   A   
301C   ED 52                  SBC   HL,DE   
301E   7D                     LD   A,L   
301F   B4                     OR   H   
3020   CA 77 30               JP   Z,expectM_3084S121   
3023   CD 7A 0F               CALL   printStr   
3026   43 6F 64 65 3A 20 31 20 78 20 3D 20 78 00 .CSTR   "Code: ","1 x = x"   
3034   CD 7A 0F               CALL   printStr   
3037   0D 0A 0D 0A 45 78 70 65 63 74 65 64 3A 20 00 .CSTR   "\r\n\r\nExpected: "   
3046   21 01 00               LD   hl,1   
3049   E5                     PUSH   hl   
304A   E5                     PUSH   hl   
304B   CD 77 10               CALL   run   
304E   2E 60 24 60 2E 68 00   .CSTR   ".`$`.h"   
3055   CD 7A 0F               CALL   printStr   
3058   0D 0A 0D 0A 41 63 74 75 61 6C 3A 20 00 .CSTR   "\r\n\r\nActual: "   
3065   E1                     POP   hl   
3066   E5                     PUSH   hl   
3067   E5                     PUSH   hl   
3068   CD 77 10               CALL   run   
306B   2E 60 24 60 2E 68 60 0D 0A 60 00 .CSTR   ".`$`.h`\r\n`"   
3076   76                     HALT      
3077                EXPECTM_3084S121:      
3077   E1                     POP   HL   
3078                          ;*Macro unroll:  test "1{}^", 1
3078   31 00 53               LD   SP,STACK   
307B   CD AE 0F               CALL   coldInit   
307E   CD CC 51               CALL   execStr   
3081   31 7B 7D 5E 00         DB   "1{}^",0   
3086   E1                     POP   HL   
3087   E5                     PUSH   HL   
3088   11 01 00               LD   DE,1   
308B   B7                     OR   A   
308C   ED 52                  SBC   HL,DE   
308E   7D                     LD   A,L   
308F   B4                     OR   H   
3090   CA E4 30               JP   Z,expectM_3085S122   
3093   CD 7A 0F               CALL   printStr   
3096   43 6F 64 65 3A 20 31 7B 7D 5E 00 .CSTR   "Code: ","1{}^"   
30A1   CD 7A 0F               CALL   printStr   
30A4   0D 0A 0D 0A 45 78 70 65 63 74 65 64 3A 20 00 .CSTR   "\r\n\r\nExpected: "   
30B3   21 01 00               LD   hl,1   
30B6   E5                     PUSH   hl   
30B7   E5                     PUSH   hl   
30B8   CD 77 10               CALL   run   
30BB   2E 60 24 60 2E 68 00   .CSTR   ".`$`.h"   
30C2   CD 7A 0F               CALL   printStr   
30C5   0D 0A 0D 0A 41 63 74 75 61 6C 3A 20 00 .CSTR   "\r\n\r\nActual: "   
30D2   E1                     POP   hl   
30D3   E5                     PUSH   hl   
30D4   E5                     PUSH   hl   
30D5   CD 77 10               CALL   run   
30D8   2E 60 24 60 2E 68 60 0D 0A 60 00 .CSTR   ".`$`.h`\r\n`"   
30E3   76                     HALT      
30E4                EXPECTM_3085S122:      
30E4   E1                     POP   HL   
30E5                          ;*Macro unroll:  test "{1}^", 1
30E5   31 00 53               LD   SP,STACK   
30E8   CD AE 0F               CALL   coldInit   
30EB   CD CC 51               CALL   execStr   
30EE   7B 31 7D 5E 00         DB   "{1}^",0   
30F3   E1                     POP   HL   
30F4   E5                     PUSH   HL   
30F5   11 01 00               LD   DE,1   
30F8   B7                     OR   A   
30F9   ED 52                  SBC   HL,DE   
30FB   7D                     LD   A,L   
30FC   B4                     OR   H   
30FD   CA 51 31               JP   Z,expectM_3086S123   
3100   CD 7A 0F               CALL   printStr   
3103   43 6F 64 65 3A 20 7B 31 7D 5E 00 .CSTR   "Code: ","{1}^"   
310E   CD 7A 0F               CALL   printStr   
3111   0D 0A 0D 0A 45 78 70 65 63 74 65 64 3A 20 00 .CSTR   "\r\n\r\nExpected: "   
3120   21 01 00               LD   hl,1   
3123   E5                     PUSH   hl   
3124   E5                     PUSH   hl   
3125   CD 77 10               CALL   run   
3128   2E 60 24 60 2E 68 00   .CSTR   ".`$`.h"   
312F   CD 7A 0F               CALL   printStr   
3132   0D 0A 0D 0A 41 63 74 75 61 6C 3A 20 00 .CSTR   "\r\n\r\nActual: "   
313F   E1                     POP   hl   
3140   E5                     PUSH   hl   
3141   E5                     PUSH   hl   
3142   CD 77 10               CALL   run   
3145   2E 60 24 60 2E 68 60 0D 0A 60 00 .CSTR   ".`$`.h`\r\n`"   
3150   76                     HALT      
3151                EXPECTM_3086S123:      
3151   E1                     POP   HL   
3152                          ;*Macro unroll:  test "{{1}^}^", 1
3152   31 00 53               LD   SP,STACK   
3155   CD AE 0F               CALL   coldInit   
3158   CD CC 51               CALL   execStr   
315B   7B 7B 31 7D 5E 7D 5E 00 DB   "{{1}^}^",0   
3163   E1                     POP   HL   
3164   E5                     PUSH   HL   
3165   11 01 00               LD   DE,1   
3168   B7                     OR   A   
3169   ED 52                  SBC   HL,DE   
316B   7D                     LD   A,L   
316C   B4                     OR   H   
316D   CA C4 31               JP   Z,expectM_3087S124   
3170   CD 7A 0F               CALL   printStr   
3173   43 6F 64 65 3A 20 7B 7B 31 7D 5E 7D 5E 00 .CSTR   "Code: ","{{1}^}^"   
3181   CD 7A 0F               CALL   printStr   
3184   0D 0A 0D 0A 45 78 70 65 63 74 65 64 3A 20 00 .CSTR   "\r\n\r\nExpected: "   
3193   21 01 00               LD   hl,1   
3196   E5                     PUSH   hl   
3197   E5                     PUSH   hl   
3198   CD 77 10               CALL   run   
319B   2E 60 24 60 2E 68 00   .CSTR   ".`$`.h"   
31A2   CD 7A 0F               CALL   printStr   
31A5   0D 0A 0D 0A 41 63 74 75 61 6C 3A 20 00 .CSTR   "\r\n\r\nActual: "   
31B2   E1                     POP   hl   
31B3   E5                     PUSH   hl   
31B4   E5                     PUSH   hl   
31B5   CD 77 10               CALL   run   
31B8   2E 60 24 60 2E 68 60 0D 0A 60 00 .CSTR   ".`$`.h`\r\n`"   
31C3   76                     HALT      
31C4                EXPECTM_3087S124:      
31C4   E1                     POP   HL   
31C5                          ;*Macro unroll:  test "{{{1}^}^}^", 1
31C5   31 00 53               LD   SP,STACK   
31C8   CD AE 0F               CALL   coldInit   
31CB   CD CC 51               CALL   execStr   
31CE   7B 7B 7B 31 7D 5E 7D 5E 7D 5E 00 DB   "{{{1}^}^}^",0   
31D9   E1                     POP   HL   
31DA   E5                     PUSH   HL   
31DB   11 01 00               LD   DE,1   
31DE   B7                     OR   A   
31DF   ED 52                  SBC   HL,DE   
31E1   7D                     LD   A,L   
31E2   B4                     OR   H   
31E3   CA 3D 32               JP   Z,expectM_3088S125   
31E6   CD 7A 0F               CALL   printStr   
31E9   43 6F 64 65 3A 20 7B 7B 7B 31 7D 5E 7D 5E 7D 5E 00 .CSTR   "Code: ","{{{1}^}^}^"   
31FA   CD 7A 0F               CALL   printStr   
31FD   0D 0A 0D 0A 45 78 70 65 63 74 65 64 3A 20 00 .CSTR   "\r\n\r\nExpected: "   
320C   21 01 00               LD   hl,1   
320F   E5                     PUSH   hl   
3210   E5                     PUSH   hl   
3211   CD 77 10               CALL   run   
3214   2E 60 24 60 2E 68 00   .CSTR   ".`$`.h"   
321B   CD 7A 0F               CALL   printStr   
321E   0D 0A 0D 0A 41 63 74 75 61 6C 3A 20 00 .CSTR   "\r\n\r\nActual: "   
322B   E1                     POP   hl   
322C   E5                     PUSH   hl   
322D   E5                     PUSH   hl   
322E   CD 77 10               CALL   run   
3231   2E 60 24 60 2E 68 60 0D 0A 60 00 .CSTR   ".`$`.h`\r\n`"   
323C   76                     HALT      
323D                EXPECTM_3088S125:      
323D   E1                     POP   HL   
323E                          ;*Macro unroll:  test "1 /f{10}{20} ? +", 21
323E   31 00 53               LD   SP,STACK   
3241   CD AE 0F               CALL   coldInit   
3244   CD CC 51               CALL   execStr   
3247   31 20 2F 66 7B 31 30 7D 7B 32 30 7D 20 3F 20 2B 00 DB   "1 /f{10}{20} ? +",0   
3258   E1                     POP   HL   
3259   E5                     PUSH   HL   
325A   11 15 00               LD   DE,21   
325D   B7                     OR   A   
325E   ED 52                  SBC   HL,DE   
3260   7D                     LD   A,L   
3261   B4                     OR   H   
3262   CA C2 32               JP   Z,expectM_3089S126   
3265   CD 7A 0F               CALL   printStr   
3268   43 6F 64 65 3A 20 31 20 2F 66 7B 31 30 7D 7B 32 30 7D 20 3F 20 2B 00 .CSTR   "Code: ","1 /f{10}{20} ? +"   
327F   CD 7A 0F               CALL   printStr   
3282   0D 0A 0D 0A 45 78 70 65 63 74 65 64 3A 20 00 .CSTR   "\r\n\r\nExpected: "   
3291   21 15 00               LD   hl,21   
3294   E5                     PUSH   hl   
3295   E5                     PUSH   hl   
3296   CD 77 10               CALL   run   
3299   2E 60 24 60 2E 68 00   .CSTR   ".`$`.h"   
32A0   CD 7A 0F               CALL   printStr   
32A3   0D 0A 0D 0A 41 63 74 75 61 6C 3A 20 00 .CSTR   "\r\n\r\nActual: "   
32B0   E1                     POP   hl   
32B1   E5                     PUSH   hl   
32B2   E5                     PUSH   hl   
32B3   CD 77 10               CALL   run   
32B6   2E 60 24 60 2E 68 60 0D 0A 60 00 .CSTR   ".`$`.h`\r\n`"   
32C1   76                     HALT      
32C2                EXPECTM_3089S126:      
32C2   E1                     POP   HL   
32C3                          ;*Macro unroll:  test "1 /t{10}{20} ? +", 11
32C3   31 00 53               LD   SP,STACK   
32C6   CD AE 0F               CALL   coldInit   
32C9   CD CC 51               CALL   execStr   
32CC   31 20 2F 74 7B 31 30 7D 7B 32 30 7D 20 3F 20 2B 00 DB   "1 /t{10}{20} ? +",0   
32DD   E1                     POP   HL   
32DE   E5                     PUSH   HL   
32DF   11 0B 00               LD   DE,11   
32E2   B7                     OR   A   
32E3   ED 52                  SBC   HL,DE   
32E5   7D                     LD   A,L   
32E6   B4                     OR   H   
32E7   CA 47 33               JP   Z,expectM_3090S127   
32EA   CD 7A 0F               CALL   printStr   
32ED   43 6F 64 65 3A 20 31 20 2F 74 7B 31 30 7D 7B 32 30 7D 20 3F 20 2B 00 .CSTR   "Code: ","1 /t{10}{20} ? +"   
3304   CD 7A 0F               CALL   printStr   
3307   0D 0A 0D 0A 45 78 70 65 63 74 65 64 3A 20 00 .CSTR   "\r\n\r\nExpected: "   
3316   21 0B 00               LD   hl,11   
3319   E5                     PUSH   hl   
331A   E5                     PUSH   hl   
331B   CD 77 10               CALL   run   
331E   2E 60 24 60 2E 68 00   .CSTR   ".`$`.h"   
3325   CD 7A 0F               CALL   printStr   
3328   0D 0A 0D 0A 41 63 74 75 61 6C 3A 20 00 .CSTR   "\r\n\r\nActual: "   
3335   E1                     POP   hl   
3336   E5                     PUSH   hl   
3337   E5                     PUSH   hl   
3338   CD 77 10               CALL   run   
333B   2E 60 24 60 2E 68 60 0D 0A 60 00 .CSTR   ".`$`.h`\r\n`"   
3346   76                     HALT      
3347                EXPECTM_3090S127:      
3347   E1                     POP   HL   
3348                          ;*Macro unroll:  test "\\{2}^", 2
3348   31 00 53               LD   SP,STACK   
334B   CD AE 0F               CALL   coldInit   
334E   CD CC 51               CALL   execStr   
3351   5C 7B 32 7D 5E 00      DB   "\\{2}^",0   
3357   E1                     POP   HL   
3358   E5                     PUSH   HL   
3359   11 02 00               LD   DE,2   
335C   B7                     OR   A   
335D   ED 52                  SBC   HL,DE   
335F   7D                     LD   A,L   
3360   B4                     OR   H   
3361   CA B6 33               JP   Z,expectM_3091S128   
3364   CD 7A 0F               CALL   printStr   
3367   43 6F 64 65 3A 20 5C 7B 32 7D 5E 00 .CSTR   "Code: ","\\{2}^"   
3373   CD 7A 0F               CALL   printStr   
3376   0D 0A 0D 0A 45 78 70 65 63 74 65 64 3A 20 00 .CSTR   "\r\n\r\nExpected: "   
3385   21 02 00               LD   hl,2   
3388   E5                     PUSH   hl   
3389   E5                     PUSH   hl   
338A   CD 77 10               CALL   run   
338D   2E 60 24 60 2E 68 00   .CSTR   ".`$`.h"   
3394   CD 7A 0F               CALL   printStr   
3397   0D 0A 0D 0A 41 63 74 75 61 6C 3A 20 00 .CSTR   "\r\n\r\nActual: "   
33A4   E1                     POP   hl   
33A5   E5                     PUSH   hl   
33A6   E5                     PUSH   hl   
33A7   CD 77 10               CALL   run   
33AA   2E 60 24 60 2E 68 60 0D 0A 60 00 .CSTR   ".`$`.h`\r\n`"   
33B5   76                     HALT      
33B6                EXPECTM_3091S128:      
33B6   E1                     POP   HL   
33B7                          ;*Macro unroll:  test "\\a{2}^", 2
33B7   31 00 53               LD   SP,STACK   
33BA   CD AE 0F               CALL   coldInit   
33BD   CD CC 51               CALL   execStr   
33C0   5C 61 7B 32 7D 5E 00   DB   "\\a{2}^",0   
33C7   E1                     POP   HL   
33C8   E5                     PUSH   HL   
33C9   11 02 00               LD   DE,2   
33CC   B7                     OR   A   
33CD   ED 52                  SBC   HL,DE   
33CF   7D                     LD   A,L   
33D0   B4                     OR   H   
33D1   CA 27 34               JP   Z,expectM_3092S129   
33D4   CD 7A 0F               CALL   printStr   
33D7   43 6F 64 65 3A 20 5C 61 7B 32 7D 5E 00 .CSTR   "Code: ","\\a{2}^"   
33E4   CD 7A 0F               CALL   printStr   
33E7   0D 0A 0D 0A 45 78 70 65 63 74 65 64 3A 20 00 .CSTR   "\r\n\r\nExpected: "   
33F6   21 02 00               LD   hl,2   
33F9   E5                     PUSH   hl   
33FA   E5                     PUSH   hl   
33FB   CD 77 10               CALL   run   
33FE   2E 60 24 60 2E 68 00   .CSTR   ".`$`.h"   
3405   CD 7A 0F               CALL   printStr   
3408   0D 0A 0D 0A 41 63 74 75 61 6C 3A 20 00 .CSTR   "\r\n\r\nActual: "   
3415   E1                     POP   hl   
3416   E5                     PUSH   hl   
3417   E5                     PUSH   hl   
3418   CD 77 10               CALL   run   
341B   2E 60 24 60 2E 68 60 0D 0A 60 00 .CSTR   ".`$`.h`\r\n`"   
3426   76                     HALT      
3427                EXPECTM_3092S129:      
3427   E1                     POP   HL   
3428                          ;*Macro unroll:  test "5 \\a{%a}^", 5
3428   31 00 53               LD   SP,STACK   
342B   CD AE 0F               CALL   coldInit   
342E   CD CC 51               CALL   execStr   
3431   35 20 5C 61 7B 25 61 7D 5E 00 DB   "5 \\a{%a}^",0   
343B   E1                     POP   HL   
343C   E5                     PUSH   HL   
343D   11 05 00               LD   DE,5   
3440   B7                     OR   A   
3441   ED 52                  SBC   HL,DE   
3443   7D                     LD   A,L   
3444   B4                     OR   H   
3445   CA 9E 34               JP   Z,expectM_3093S130   
3448   CD 7A 0F               CALL   printStr   
344B   43 6F 64 65 3A 20 35 20 5C 61 7B 25 61 7D 5E 00 .CSTR   "Code: ","5 \\a{%a}^"   
345B   CD 7A 0F               CALL   printStr   
345E   0D 0A 0D 0A 45 78 70 65 63 74 65 64 3A 20 00 .CSTR   "\r\n\r\nExpected: "   
346D   21 05 00               LD   hl,5   
3470   E5                     PUSH   hl   
3471   E5                     PUSH   hl   
3472   CD 77 10               CALL   run   
3475   2E 60 24 60 2E 68 00   .CSTR   ".`$`.h"   
347C   CD 7A 0F               CALL   printStr   
347F   0D 0A 0D 0A 41 63 74 75 61 6C 3A 20 00 .CSTR   "\r\n\r\nActual: "   
348C   E1                     POP   hl   
348D   E5                     PUSH   hl   
348E   E5                     PUSH   hl   
348F   CD 77 10               CALL   run   
3492   2E 60 24 60 2E 68 60 0D 0A 60 00 .CSTR   ".`$`.h`\r\n`"   
349D   76                     HALT      
349E                EXPECTM_3093S130:      
349E   E1                     POP   HL   
349F                          ;*Macro unroll:  test "5 \\a:b{%a}^", 5
349F   31 00 53               LD   SP,STACK   
34A2   CD AE 0F               CALL   coldInit   
34A5   CD CC 51               CALL   execStr   
34A8   35 20 5C 61 3A 62 7B 25 61 7D 5E 00 DB   "5 \\a:b{%a}^",0   
34B4   E1                     POP   HL   
34B5   E5                     PUSH   HL   
34B6   11 05 00               LD   DE,5   
34B9   B7                     OR   A   
34BA   ED 52                  SBC   HL,DE   
34BC   7D                     LD   A,L   
34BD   B4                     OR   H   
34BE   CA 19 35               JP   Z,expectM_3094S131   
34C1   CD 7A 0F               CALL   printStr   
34C4   43 6F 64 65 3A 20 35 20 5C 61 3A 62 7B 25 61 7D 5E 00 .CSTR   "Code: ","5 \\a:b{%a}^"   
34D6   CD 7A 0F               CALL   printStr   
34D9   0D 0A 0D 0A 45 78 70 65 63 74 65 64 3A 20 00 .CSTR   "\r\n\r\nExpected: "   
34E8   21 05 00               LD   hl,5   
34EB   E5                     PUSH   hl   
34EC   E5                     PUSH   hl   
34ED   CD 77 10               CALL   run   
34F0   2E 60 24 60 2E 68 00   .CSTR   ".`$`.h"   
34F7   CD 7A 0F               CALL   printStr   
34FA   0D 0A 0D 0A 41 63 74 75 61 6C 3A 20 00 .CSTR   "\r\n\r\nActual: "   
3507   E1                     POP   hl   
3508   E5                     PUSH   hl   
3509   E5                     PUSH   hl   
350A   CD 77 10               CALL   run   
350D   2E 60 24 60 2E 68 60 0D 0A 60 00 .CSTR   ".`$`.h`\r\n`"   
3518   76                     HALT      
3519                EXPECTM_3094S131:      
3519   E1                     POP   HL   
351A                          ;*Macro unroll:  test "\\a{{2}^}^", 2
351A   31 00 53               LD   SP,STACK   
351D   CD AE 0F               CALL   coldInit   
3520   CD CC 51               CALL   execStr   
3523   5C 61 7B 7B 32 7D 5E 7D 5E 00 DB   "\\a{{2}^}^",0   
352D   E1                     POP   HL   
352E   E5                     PUSH   HL   
352F   11 02 00               LD   DE,2   
3532   B7                     OR   A   
3533   ED 52                  SBC   HL,DE   
3535   7D                     LD   A,L   
3536   B4                     OR   H   
3537   CA 90 35               JP   Z,expectM_3095S132   
353A   CD 7A 0F               CALL   printStr   
353D   43 6F 64 65 3A 20 5C 61 7B 7B 32 7D 5E 7D 5E 00 .CSTR   "Code: ","\\a{{2}^}^"   
354D   CD 7A 0F               CALL   printStr   
3550   0D 0A 0D 0A 45 78 70 65 63 74 65 64 3A 20 00 .CSTR   "\r\n\r\nExpected: "   
355F   21 02 00               LD   hl,2   
3562   E5                     PUSH   hl   
3563   E5                     PUSH   hl   
3564   CD 77 10               CALL   run   
3567   2E 60 24 60 2E 68 00   .CSTR   ".`$`.h"   
356E   CD 7A 0F               CALL   printStr   
3571   0D 0A 0D 0A 41 63 74 75 61 6C 3A 20 00 .CSTR   "\r\n\r\nActual: "   
357E   E1                     POP   hl   
357F   E5                     PUSH   hl   
3580   E5                     PUSH   hl   
3581   CD 77 10               CALL   run   
3584   2E 60 24 60 2E 68 60 0D 0A 60 00 .CSTR   ".`$`.h`\r\n`"   
358F   76                     HALT      
3590                EXPECTM_3095S132:      
3590   E1                     POP   HL   
3591                          ;*Macro unroll:  test "1 5 \\a{{%a}^}^", 5
3591   31 00 53               LD   SP,STACK   
3594   CD AE 0F               CALL   coldInit   
3597   CD CC 51               CALL   execStr   
359A   31 20 35 20 5C 61 7B 7B 25 61 7D 5E 7D 5E 00 DB   "1 5 \\a{{%a}^}^",0   
35A9   E1                     POP   HL   
35AA   E5                     PUSH   HL   
35AB   11 05 00               LD   DE,5   
35AE   B7                     OR   A   
35AF   ED 52                  SBC   HL,DE   
35B1   7D                     LD   A,L   
35B2   B4                     OR   H   
35B3   CA 11 36               JP   Z,expectM_3096S133   
35B6   CD 7A 0F               CALL   printStr   
35B9   43 6F 64 65 3A 20 31 20 35 20 5C 61 7B 7B 25 61 7D 5E 7D 5E 00 .CSTR   "Code: ","1 5 \\a{{%a}^}^"   
35CE   CD 7A 0F               CALL   printStr   
35D1   0D 0A 0D 0A 45 78 70 65 63 74 65 64 3A 20 00 .CSTR   "\r\n\r\nExpected: "   
35E0   21 05 00               LD   hl,5   
35E3   E5                     PUSH   hl   
35E4   E5                     PUSH   hl   
35E5   CD 77 10               CALL   run   
35E8   2E 60 24 60 2E 68 00   .CSTR   ".`$`.h"   
35EF   CD 7A 0F               CALL   printStr   
35F2   0D 0A 0D 0A 41 63 74 75 61 6C 3A 20 00 .CSTR   "\r\n\r\nActual: "   
35FF   E1                     POP   hl   
3600   E5                     PUSH   hl   
3601   E5                     PUSH   hl   
3602   CD 77 10               CALL   run   
3605   2E 60 24 60 2E 68 60 0D 0A 60 00 .CSTR   ".`$`.h`\r\n`"   
3610   76                     HALT      
3611                EXPECTM_3096S133:      
3611   E1                     POP   HL   
3612                          ;*Macro unroll:  test "1 5 \\ab{{%a}^}^", 1
3612   31 00 53               LD   SP,STACK   
3615   CD AE 0F               CALL   coldInit   
3618   CD CC 51               CALL   execStr   
361B   31 20 35 20 5C 61 62 7B 7B 25 61 7D 5E 7D 5E 00 DB   "1 5 \\ab{{%a}^}^",0   
362B   E1                     POP   HL   
362C   E5                     PUSH   HL   
362D   11 01 00               LD   DE,1   
3630   B7                     OR   A   
3631   ED 52                  SBC   HL,DE   
3633   7D                     LD   A,L   
3634   B4                     OR   H   
3635   CA 94 36               JP   Z,expectM_3097S134   
3638   CD 7A 0F               CALL   printStr   
363B   43 6F 64 65 3A 20 31 20 35 20 5C 61 62 7B 7B 25 61 7D 5E 7D 5E 00 .CSTR   "Code: ","1 5 \\ab{{%a}^}^"   
3651   CD 7A 0F               CALL   printStr   
3654   0D 0A 0D 0A 45 78 70 65 63 74 65 64 3A 20 00 .CSTR   "\r\n\r\nExpected: "   
3663   21 01 00               LD   hl,1   
3666   E5                     PUSH   hl   
3667   E5                     PUSH   hl   
3668   CD 77 10               CALL   run   
366B   2E 60 24 60 2E 68 00   .CSTR   ".`$`.h"   
3672   CD 7A 0F               CALL   printStr   
3675   0D 0A 0D 0A 41 63 74 75 61 6C 3A 20 00 .CSTR   "\r\n\r\nActual: "   
3682   E1                     POP   hl   
3683   E5                     PUSH   hl   
3684   E5                     PUSH   hl   
3685   CD 77 10               CALL   run   
3688   2E 60 24 60 2E 68 60 0D 0A 60 00 .CSTR   ".`$`.h`\r\n`"   
3693   76                     HALT      
3694                EXPECTM_3097S134:      
3694   E1                     POP   HL   
3695                          ;*Macro unroll:  test "1 5 \\a{{%a 2 +}^}^", 7
3695   31 00 53               LD   SP,STACK   
3698   CD AE 0F               CALL   coldInit   
369B   CD CC 51               CALL   execStr   
369E   31 20 35 20 5C 61 7B 7B 25 61 20 32 20 2B 7D 5E 7D 5E 00 DB   "1 5 \\a{{%a 2 +}^}^",0   
36B1   E1                     POP   HL   
36B2   E5                     PUSH   HL   
36B3   11 07 00               LD   DE,7   
36B6   B7                     OR   A   
36B7   ED 52                  SBC   HL,DE   
36B9   7D                     LD   A,L   
36BA   B4                     OR   H   
36BB   CA 1D 37               JP   Z,expectM_3098S135   
36BE   CD 7A 0F               CALL   printStr   
36C1   43 6F 64 65 3A 20 31 20 35 20 5C 61 7B 7B 25 61 20 32 20 2B 7D 5E 7D 5E 00 .CSTR   "Code: ","1 5 \\a{{%a 2 +}^}^"   
36DA   CD 7A 0F               CALL   printStr   
36DD   0D 0A 0D 0A 45 78 70 65 63 74 65 64 3A 20 00 .CSTR   "\r\n\r\nExpected: "   
36EC   21 07 00               LD   hl,7   
36EF   E5                     PUSH   hl   
36F0   E5                     PUSH   hl   
36F1   CD 77 10               CALL   run   
36F4   2E 60 24 60 2E 68 00   .CSTR   ".`$`.h"   
36FB   CD 7A 0F               CALL   printStr   
36FE   0D 0A 0D 0A 41 63 74 75 61 6C 3A 20 00 .CSTR   "\r\n\r\nActual: "   
370B   E1                     POP   hl   
370C   E5                     PUSH   hl   
370D   E5                     PUSH   hl   
370E   CD 77 10               CALL   run   
3711   2E 60 24 60 2E 68 60 0D 0A 60 00 .CSTR   ".`$`.h`\r\n`"   
371C   76                     HALT      
371D                EXPECTM_3098S135:      
371D   E1                     POP   HL   
371E                          ;*Macro unroll:  test "1 5 \\ab{{%a %b +}^}^", 6
371E   31 00 53               LD   SP,STACK   
3721   CD AE 0F               CALL   coldInit   
3724   CD CC 51               CALL   execStr   
3727   31 20 35 20 5C 61 62 7B 7B 25 61 20 25 62 20 2B 7D 5E 7D 5E 00 DB   "1 5 \\ab{{%a %b +}^}^",0   
373C   E1                     POP   HL   
373D   E5                     PUSH   HL   
373E   11 06 00               LD   DE,6   
3741   B7                     OR   A   
3742   ED 52                  SBC   HL,DE   
3744   7D                     LD   A,L   
3745   B4                     OR   H   
3746   CA AA 37               JP   Z,expectM_3099S136   
3749   CD 7A 0F               CALL   printStr   
374C   43 6F 64 65 3A 20 31 20 35 20 5C 61 62 7B 7B 25 61 20 25 62 20 2B 7D 5E 7D 5E 00 .CSTR   "Code: ","1 5 \\ab{{%a %b +}^}^"   
3767   CD 7A 0F               CALL   printStr   
376A   0D 0A 0D 0A 45 78 70 65 63 74 65 64 3A 20 00 .CSTR   "\r\n\r\nExpected: "   
3779   21 06 00               LD   hl,6   
377C   E5                     PUSH   hl   
377D   E5                     PUSH   hl   
377E   CD 77 10               CALL   run   
3781   2E 60 24 60 2E 68 00   .CSTR   ".`$`.h"   
3788   CD 7A 0F               CALL   printStr   
378B   0D 0A 0D 0A 41 63 74 75 61 6C 3A 20 00 .CSTR   "\r\n\r\nActual: "   
3798   E1                     POP   hl   
3799   E5                     PUSH   hl   
379A   E5                     PUSH   hl   
379B   CD 77 10               CALL   run   
379E   2E 60 24 60 2E 68 60 0D 0A 60 00 .CSTR   ".`$`.h`\r\n`"   
37A9   76                     HALT      
37AA                EXPECTM_3099S136:      
37AA   E1                     POP   HL   
37AB                          ;*Macro unroll:  test "\\a{2} x= 1 x^", 2
37AB   31 00 53               LD   SP,STACK   
37AE   CD AE 0F               CALL   coldInit   
37B1   CD CC 51               CALL   execStr   
37B4   5C 61 7B 32 7D 20 78 3D 20 31 20 78 5E 00 DB   "\\a{2} x= 1 x^",0   
37C2   E1                     POP   HL   
37C3   E5                     PUSH   HL   
37C4   11 02 00               LD   DE,2   
37C7   B7                     OR   A   
37C8   ED 52                  SBC   HL,DE   
37CA   7D                     LD   A,L   
37CB   B4                     OR   H   
37CC   CA 29 38               JP   Z,expectM_3100S137   
37CF   CD 7A 0F               CALL   printStr   
37D2   43 6F 64 65 3A 20 5C 61 7B 32 7D 20 78 3D 20 31 20 78 5E 00 .CSTR   "Code: ","\\a{2} x= 1 x^"   
37E6   CD 7A 0F               CALL   printStr   
37E9   0D 0A 0D 0A 45 78 70 65 63 74 65 64 3A 20 00 .CSTR   "\r\n\r\nExpected: "   
37F8   21 02 00               LD   hl,2   
37FB   E5                     PUSH   hl   
37FC   E5                     PUSH   hl   
37FD   CD 77 10               CALL   run   
3800   2E 60 24 60 2E 68 00   .CSTR   ".`$`.h"   
3807   CD 7A 0F               CALL   printStr   
380A   0D 0A 0D 0A 41 63 74 75 61 6C 3A 20 00 .CSTR   "\r\n\r\nActual: "   
3817   E1                     POP   hl   
3818   E5                     PUSH   hl   
3819   E5                     PUSH   hl   
381A   CD 77 10               CALL   run   
381D   2E 60 24 60 2E 68 60 0D 0A 60 00 .CSTR   ".`$`.h`\r\n`"   
3828   76                     HALT      
3829                EXPECTM_3100S137:      
3829   E1                     POP   HL   
382A                          ;*Macro unroll:  test "\\a{%a} x= 0 1 x^", 1
382A   31 00 53               LD   SP,STACK   
382D   CD AE 0F               CALL   coldInit   
3830   CD CC 51               CALL   execStr   
3833   5C 61 7B 25 61 7D 20 78 3D 20 30 20 31 20 78 5E 00 DB   "\\a{%a} x= 0 1 x^",0   
3844   E1                     POP   HL   
3845   E5                     PUSH   HL   
3846   11 01 00               LD   DE,1   
3849   B7                     OR   A   
384A   ED 52                  SBC   HL,DE   
384C   7D                     LD   A,L   
384D   B4                     OR   H   
384E   CA AE 38               JP   Z,expectM_3101S138   
3851   CD 7A 0F               CALL   printStr   
3854   43 6F 64 65 3A 20 5C 61 7B 25 61 7D 20 78 3D 20 30 20 31 20 78 5E 00 .CSTR   "Code: ","\\a{%a} x= 0 1 x^"   
386B   CD 7A 0F               CALL   printStr   
386E   0D 0A 0D 0A 45 78 70 65 63 74 65 64 3A 20 00 .CSTR   "\r\n\r\nExpected: "   
387D   21 01 00               LD   hl,1   
3880   E5                     PUSH   hl   
3881   E5                     PUSH   hl   
3882   CD 77 10               CALL   run   
3885   2E 60 24 60 2E 68 00   .CSTR   ".`$`.h"   
388C   CD 7A 0F               CALL   printStr   
388F   0D 0A 0D 0A 41 63 74 75 61 6C 3A 20 00 .CSTR   "\r\n\r\nActual: "   
389C   E1                     POP   hl   
389D   E5                     PUSH   hl   
389E   E5                     PUSH   hl   
389F   CD 77 10               CALL   run   
38A2   2E 60 24 60 2E 68 60 0D 0A 60 00 .CSTR   ".`$`.h`\r\n`"   
38AD   76                     HALT      
38AE                EXPECTM_3101S138:      
38AE   E1                     POP   HL   
38AF                          ;*Macro unroll:  test "\\ab{%b} x= 1 2 x^", 2
38AF   31 00 53               LD   SP,STACK   
38B2   CD AE 0F               CALL   coldInit   
38B5   CD CC 51               CALL   execStr   
38B8   5C 61 62 7B 25 62 7D 20 78 3D 20 31 20 32 20 78 5E 00 DB   "\\ab{%b} x= 1 2 x^",0   
38CA   E1                     POP   HL   
38CB   E5                     PUSH   HL   
38CC   11 02 00               LD   DE,2   
38CF   B7                     OR   A   
38D0   ED 52                  SBC   HL,DE   
38D2   7D                     LD   A,L   
38D3   B4                     OR   H   
38D4   CA 35 39               JP   Z,expectM_3102S139   
38D7   CD 7A 0F               CALL   printStr   
38DA   43 6F 64 65 3A 20 5C 61 62 7B 25 62 7D 20 78 3D 20 31 20 32 20 78 5E 00 .CSTR   "Code: ","\\ab{%b} x= 1 2 x^"   
38F2   CD 7A 0F               CALL   printStr   
38F5   0D 0A 0D 0A 45 78 70 65 63 74 65 64 3A 20 00 .CSTR   "\r\n\r\nExpected: "   
3904   21 02 00               LD   hl,2   
3907   E5                     PUSH   hl   
3908   E5                     PUSH   hl   
3909   CD 77 10               CALL   run   
390C   2E 60 24 60 2E 68 00   .CSTR   ".`$`.h"   
3913   CD 7A 0F               CALL   printStr   
3916   0D 0A 0D 0A 41 63 74 75 61 6C 3A 20 00 .CSTR   "\r\n\r\nActual: "   
3923   E1                     POP   hl   
3924   E5                     PUSH   hl   
3925   E5                     PUSH   hl   
3926   CD 77 10               CALL   run   
3929   2E 60 24 60 2E 68 60 0D 0A 60 00 .CSTR   ".`$`.h`\r\n`"   
3934   76                     HALT      
3935                EXPECTM_3102S139:      
3935   E1                     POP   HL   
3936                          ;*Macro unroll:  test "\\a:b{%a} x= 1 2 x^", 2
3936   31 00 53               LD   SP,STACK   
3939   CD AE 0F               CALL   coldInit   
393C   CD CC 51               CALL   execStr   
393F   5C 61 3A 62 7B 25 61 7D 20 78 3D 20 31 20 32 20 78 5E 00 DB   "\\a:b{%a} x= 1 2 x^",0   
3952   E1                     POP   HL   
3953   E5                     PUSH   HL   
3954   11 02 00               LD   DE,2   
3957   B7                     OR   A   
3958   ED 52                  SBC   HL,DE   
395A   7D                     LD   A,L   
395B   B4                     OR   H   
395C   CA BE 39               JP   Z,expectM_3103S140   
395F   CD 7A 0F               CALL   printStr   
3962   43 6F 64 65 3A 20 5C 61 3A 62 7B 25 61 7D 20 78 3D 20 31 20 32 20 78 5E 00 .CSTR   "Code: ","\\a:b{%a} x= 1 2 x^"   
397B   CD 7A 0F               CALL   printStr   
397E   0D 0A 0D 0A 45 78 70 65 63 74 65 64 3A 20 00 .CSTR   "\r\n\r\nExpected: "   
398D   21 02 00               LD   hl,2   
3990   E5                     PUSH   hl   
3991   E5                     PUSH   hl   
3992   CD 77 10               CALL   run   
3995   2E 60 24 60 2E 68 00   .CSTR   ".`$`.h"   
399C   CD 7A 0F               CALL   printStr   
399F   0D 0A 0D 0A 41 63 74 75 61 6C 3A 20 00 .CSTR   "\r\n\r\nActual: "   
39AC   E1                     POP   hl   
39AD   E5                     PUSH   hl   
39AE   E5                     PUSH   hl   
39AF   CD 77 10               CALL   run   
39B2   2E 60 24 60 2E 68 60 0D 0A 60 00 .CSTR   ".`$`.h`\r\n`"   
39BD   76                     HALT      
39BE                EXPECTM_3103S140:      
39BE   E1                     POP   HL   
39BF                          ;*Macro unroll:  test "\\ab{%b} x= 1 2 x^", 2
39BF   31 00 53               LD   SP,STACK   
39C2   CD AE 0F               CALL   coldInit   
39C5   CD CC 51               CALL   execStr   
39C8   5C 61 62 7B 25 62 7D 20 78 3D 20 31 20 32 20 78 5E 00 DB   "\\ab{%b} x= 1 2 x^",0   
39DA   E1                     POP   HL   
39DB   E5                     PUSH   HL   
39DC   11 02 00               LD   DE,2   
39DF   B7                     OR   A   
39E0   ED 52                  SBC   HL,DE   
39E2   7D                     LD   A,L   
39E3   B4                     OR   H   
39E4   CA 45 3A               JP   Z,expectM_3104S141   
39E7   CD 7A 0F               CALL   printStr   
39EA   43 6F 64 65 3A 20 5C 61 62 7B 25 62 7D 20 78 3D 20 31 20 32 20 78 5E 00 .CSTR   "Code: ","\\ab{%b} x= 1 2 x^"   
3A02   CD 7A 0F               CALL   printStr   
3A05   0D 0A 0D 0A 45 78 70 65 63 74 65 64 3A 20 00 .CSTR   "\r\n\r\nExpected: "   
3A14   21 02 00               LD   hl,2   
3A17   E5                     PUSH   hl   
3A18   E5                     PUSH   hl   
3A19   CD 77 10               CALL   run   
3A1C   2E 60 24 60 2E 68 00   .CSTR   ".`$`.h"   
3A23   CD 7A 0F               CALL   printStr   
3A26   0D 0A 0D 0A 41 63 74 75 61 6C 3A 20 00 .CSTR   "\r\n\r\nActual: "   
3A33   E1                     POP   hl   
3A34   E5                     PUSH   hl   
3A35   E5                     PUSH   hl   
3A36   CD 77 10               CALL   run   
3A39   2E 60 24 60 2E 68 60 0D 0A 60 00 .CSTR   ".`$`.h`\r\n`"   
3A44   76                     HALT      
3A45                EXPECTM_3104S141:      
3A45   E1                     POP   HL   
3A46                          ;*Macro unroll:  test "\\ab{%b %a} x= 10 15 x^ -", 5
3A46   31 00 53               LD   SP,STACK   
3A49   CD AE 0F               CALL   coldInit   
3A4C   CD CC 51               CALL   execStr   
3A4F   5C 61 62 7B 25 62 20 25 61 7D 20 78 3D 20 31 30 20 31 35 20 78 5E 20 2D 00 DB   "\\ab{%b %a} x= 10 15 x^ -",0   
3A68   E1                     POP   HL   
3A69   E5                     PUSH   HL   
3A6A   11 05 00               LD   DE,5   
3A6D   B7                     OR   A   
3A6E   ED 52                  SBC   HL,DE   
3A70   7D                     LD   A,L   
3A71   B4                     OR   H   
3A72   CA DA 3A               JP   Z,expectM_3105S142   
3A75   CD 7A 0F               CALL   printStr   
3A78   43 6F 64 65 3A 20 5C 61 62 7B 25 62 20 25 61 7D 20 78 3D 20 31 30 20 31 35 20 78 5E 20 2D 00 .CSTR   "Code: ","\\ab{%b %a} x= 10 15 x^ -"   
3A97   CD 7A 0F               CALL   printStr   
3A9A   0D 0A 0D 0A 45 78 70 65 63 74 65 64 3A 20 00 .CSTR   "\r\n\r\nExpected: "   
3AA9   21 05 00               LD   hl,5   
3AAC   E5                     PUSH   hl   
3AAD   E5                     PUSH   hl   
3AAE   CD 77 10               CALL   run   
3AB1   2E 60 24 60 2E 68 00   .CSTR   ".`$`.h"   
3AB8   CD 7A 0F               CALL   printStr   
3ABB   0D 0A 0D 0A 41 63 74 75 61 6C 3A 20 00 .CSTR   "\r\n\r\nActual: "   
3AC8   E1                     POP   hl   
3AC9   E5                     PUSH   hl   
3ACA   E5                     PUSH   hl   
3ACB   CD 77 10               CALL   run   
3ACE   2E 60 24 60 2E 68 60 0D 0A 60 00 .CSTR   ".`$`.h`\r\n`"   
3AD9   76                     HALT      
3ADA                EXPECTM_3105S142:      
3ADA   E1                     POP   HL   
3ADB                          ;*Macro unroll:  test "\\a:b{2} x= 1 x^", 2
3ADB   31 00 53               LD   SP,STACK   
3ADE   CD AE 0F               CALL   coldInit   
3AE1   CD CC 51               CALL   execStr   
3AE4   5C 61 3A 62 7B 32 7D 20 78 3D 20 31 20 78 5E 00 DB   "\\a:b{2} x= 1 x^",0   
3AF4   E1                     POP   HL   
3AF5   E5                     PUSH   HL   
3AF6   11 02 00               LD   DE,2   
3AF9   B7                     OR   A   
3AFA   ED 52                  SBC   HL,DE   
3AFC   7D                     LD   A,L   
3AFD   B4                     OR   H   
3AFE   CA 5D 3B               JP   Z,expectM_3106S143   
3B01   CD 7A 0F               CALL   printStr   
3B04   43 6F 64 65 3A 20 5C 61 3A 62 7B 32 7D 20 78 3D 20 31 20 78 5E 00 .CSTR   "Code: ","\\a:b{2} x= 1 x^"   
3B1A   CD 7A 0F               CALL   printStr   
3B1D   0D 0A 0D 0A 45 78 70 65 63 74 65 64 3A 20 00 .CSTR   "\r\n\r\nExpected: "   
3B2C   21 02 00               LD   hl,2   
3B2F   E5                     PUSH   hl   
3B30   E5                     PUSH   hl   
3B31   CD 77 10               CALL   run   
3B34   2E 60 24 60 2E 68 00   .CSTR   ".`$`.h"   
3B3B   CD 7A 0F               CALL   printStr   
3B3E   0D 0A 0D 0A 41 63 74 75 61 6C 3A 20 00 .CSTR   "\r\n\r\nActual: "   
3B4B   E1                     POP   hl   
3B4C   E5                     PUSH   hl   
3B4D   E5                     PUSH   hl   
3B4E   CD 77 10               CALL   run   
3B51   2E 60 24 60 2E 68 60 0D 0A 60 00 .CSTR   ".`$`.h`\r\n`"   
3B5C   76                     HALT      
3B5D                EXPECTM_3106S143:      
3B5D   E1                     POP   HL   
3B5E                          ;*Macro unroll:  test "\\:b{100 %b = %b} x= x^", 100
3B5E   31 00 53               LD   SP,STACK   
3B61   CD AE 0F               CALL   coldInit   
3B64   CD CC 51               CALL   execStr   
3B67   5C 3A 62 7B 31 30 30 20 25 62 20 3D 20 25 62 7D 20 78 3D 20 78 5E 00 DB   "\\:b{100 %b = %b} x= x^",0   
3B7E   E1                     POP   HL   
3B7F   E5                     PUSH   HL   
3B80   11 64 00               LD   DE,100   
3B83   B7                     OR   A   
3B84   ED 52                  SBC   HL,DE   
3B86   7D                     LD   A,L   
3B87   B4                     OR   H   
3B88   CA EE 3B               JP   Z,expectM_3107S144   
3B8B   CD 7A 0F               CALL   printStr   
3B8E   43 6F 64 65 3A 20 5C 3A 62 7B 31 30 30 20 25 62 20 3D 20 25 62 7D 20 78 3D 20 78 5E 00 .CSTR   "Code: ","\\:b{100 %b = %b} x= x^"   
3BAB   CD 7A 0F               CALL   printStr   
3BAE   0D 0A 0D 0A 45 78 70 65 63 74 65 64 3A 20 00 .CSTR   "\r\n\r\nExpected: "   
3BBD   21 64 00               LD   hl,100   
3BC0   E5                     PUSH   hl   
3BC1   E5                     PUSH   hl   
3BC2   CD 77 10               CALL   run   
3BC5   2E 60 24 60 2E 68 00   .CSTR   ".`$`.h"   
3BCC   CD 7A 0F               CALL   printStr   
3BCF   0D 0A 0D 0A 41 63 74 75 61 6C 3A 20 00 .CSTR   "\r\n\r\nActual: "   
3BDC   E1                     POP   hl   
3BDD   E5                     PUSH   hl   
3BDE   E5                     PUSH   hl   
3BDF   CD 77 10               CALL   run   
3BE2   2E 60 24 60 2E 68 60 0D 0A 60 00 .CSTR   ".`$`.h`\r\n`"   
3BED   76                     HALT      
3BEE                EXPECTM_3107S144:      
3BEE   E1                     POP   HL   
3BEF                          ;*Macro unroll:  test "\\a:b{1 %b = %b} x= 2 x^", 1
3BEF   31 00 53               LD   SP,STACK   
3BF2   CD AE 0F               CALL   coldInit   
3BF5   CD CC 51               CALL   execStr   
3BF8   5C 61 3A 62 7B 31 20 25 62 20 3D 20 25 62 7D 20 78 3D 20 32 20 78 5E 00 DB   "\\a:b{1 %b = %b} x= 2 x^",0   
3C10   E1                     POP   HL   
3C11   E5                     PUSH   HL   
3C12   11 01 00               LD   DE,1   
3C15   B7                     OR   A   
3C16   ED 52                  SBC   HL,DE   
3C18   7D                     LD   A,L   
3C19   B4                     OR   H   
3C1A   CA 81 3C               JP   Z,expectM_3108S145   
3C1D   CD 7A 0F               CALL   printStr   
3C20   43 6F 64 65 3A 20 5C 61 3A 62 7B 31 20 25 62 20 3D 20 25 62 7D 20 78 3D 20 32 20 78 5E 00 .CSTR   "Code: ","\\a:b{1 %b = %b} x= 2 x^"   
3C3E   CD 7A 0F               CALL   printStr   
3C41   0D 0A 0D 0A 45 78 70 65 63 74 65 64 3A 20 00 .CSTR   "\r\n\r\nExpected: "   
3C50   21 01 00               LD   hl,1   
3C53   E5                     PUSH   hl   
3C54   E5                     PUSH   hl   
3C55   CD 77 10               CALL   run   
3C58   2E 60 24 60 2E 68 00   .CSTR   ".`$`.h"   
3C5F   CD 7A 0F               CALL   printStr   
3C62   0D 0A 0D 0A 41 63 74 75 61 6C 3A 20 00 .CSTR   "\r\n\r\nActual: "   
3C6F   E1                     POP   hl   
3C70   E5                     PUSH   hl   
3C71   E5                     PUSH   hl   
3C72   CD 77 10               CALL   run   
3C75   2E 60 24 60 2E 68 60 0D 0A 60 00 .CSTR   ".`$`.h`\r\n`"   
3C80   76                     HALT      
3C81                EXPECTM_3108S145:      
3C81   E1                     POP   HL   
3C82                          ;*Macro unroll:  test "\\a:b{%a %b = %b} x= 2 x^", 2
3C82   31 00 53               LD   SP,STACK   
3C85   CD AE 0F               CALL   coldInit   
3C88   CD CC 51               CALL   execStr   
3C8B   5C 61 3A 62 7B 25 61 20 25 62 20 3D 20 25 62 7D 20 78 3D 20 32 20 78 5E 00 DB   "\\a:b{%a %b = %b} x= 2 x^",0   
3CA4   E1                     POP   HL   
3CA5   E5                     PUSH   HL   
3CA6   11 02 00               LD   DE,2   
3CA9   B7                     OR   A   
3CAA   ED 52                  SBC   HL,DE   
3CAC   7D                     LD   A,L   
3CAD   B4                     OR   H   
3CAE   CA 16 3D               JP   Z,expectM_3109S146   
3CB1   CD 7A 0F               CALL   printStr   
3CB4   43 6F 64 65 3A 20 5C 61 3A 62 7B 25 61 20 25 62 20 3D 20 25 62 7D 20 78 3D 20 32 20 78 5E 00 .CSTR   "Code: ","\\a:b{%a %b = %b} x= 2 x^"   
3CD3   CD 7A 0F               CALL   printStr   
3CD6   0D 0A 0D 0A 45 78 70 65 63 74 65 64 3A 20 00 .CSTR   "\r\n\r\nExpected: "   
3CE5   21 02 00               LD   hl,2   
3CE8   E5                     PUSH   hl   
3CE9   E5                     PUSH   hl   
3CEA   CD 77 10               CALL   run   
3CED   2E 60 24 60 2E 68 00   .CSTR   ".`$`.h"   
3CF4   CD 7A 0F               CALL   printStr   
3CF7   0D 0A 0D 0A 41 63 74 75 61 6C 3A 20 00 .CSTR   "\r\n\r\nActual: "   
3D04   E1                     POP   hl   
3D05   E5                     PUSH   hl   
3D06   E5                     PUSH   hl   
3D07   CD 77 10               CALL   run   
3D0A   2E 60 24 60 2E 68 60 0D 0A 60 00 .CSTR   ".`$`.h`\r\n`"   
3D15   76                     HALT      
3D16                EXPECTM_3109S146:      
3D16   E1                     POP   HL   
3D17                          ;*Macro unroll:  test "1 10 20 \\ab{/t{%a}{%b} ?}^ +", 11
3D17   31 00 53               LD   SP,STACK   
3D1A   CD AE 0F               CALL   coldInit   
3D1D   CD CC 51               CALL   execStr   
3D20   31 20 31 30 20 32 30 20 5C 61 62 7B 2F 74 7B 25 61 7D 7B 25 62 7D 20 3F 7D 5E 20 2B 00 DB   "1 10 20 \\ab{/t{%a}{%b} ?}^ +",0   
3D3D   E1                     POP   HL   
3D3E   E5                     PUSH   HL   
3D3F   11 0B 00               LD   DE,11   
3D42   B7                     OR   A   
3D43   ED 52                  SBC   HL,DE   
3D45   7D                     LD   A,L   
3D46   B4                     OR   H   
3D47   CA B3 3D               JP   Z,expectM_3110S147   
3D4A   CD 7A 0F               CALL   printStr   
3D4D   43 6F 64 65 3A 20 31 20 31 30 20 32 30 20 5C 61 62 7B 2F 74 7B 25 61 7D 7B 25 62 7D 20 3F 7D 5E 20 2B 00 .CSTR   "Code: ","1 10 20 \\ab{/t{%a}{%b} ?}^ +"   
3D70   CD 7A 0F               CALL   printStr   
3D73   0D 0A 0D 0A 45 78 70 65 63 74 65 64 3A 20 00 .CSTR   "\r\n\r\nExpected: "   
3D82   21 0B 00               LD   hl,11   
3D85   E5                     PUSH   hl   
3D86   E5                     PUSH   hl   
3D87   CD 77 10               CALL   run   
3D8A   2E 60 24 60 2E 68 00   .CSTR   ".`$`.h"   
3D91   CD 7A 0F               CALL   printStr   
3D94   0D 0A 0D 0A 41 63 74 75 61 6C 3A 20 00 .CSTR   "\r\n\r\nActual: "   
3DA1   E1                     POP   hl   
3DA2   E5                     PUSH   hl   
3DA3   E5                     PUSH   hl   
3DA4   CD 77 10               CALL   run   
3DA7   2E 60 24 60 2E 68 60 0D 0A 60 00 .CSTR   ".`$`.h`\r\n`"   
3DB2   76                     HALT      
3DB3                EXPECTM_3110S147:      
3DB3   E1                     POP   HL   
3DB4                          ;*Macro unroll:  test "1 10 20 \\ab{/f{%a}{%b} ?}^ +", 21
3DB4   31 00 53               LD   SP,STACK   
3DB7   CD AE 0F               CALL   coldInit   
3DBA   CD CC 51               CALL   execStr   
3DBD   31 20 31 30 20 32 30 20 5C 61 62 7B 2F 66 7B 25 61 7D 7B 25 62 7D 20 3F 7D 5E 20 2B 00 DB   "1 10 20 \\ab{/f{%a}{%b} ?}^ +",0   
3DDA   E1                     POP   HL   
3DDB   E5                     PUSH   HL   
3DDC   11 15 00               LD   DE,21   
3DDF   B7                     OR   A   
3DE0   ED 52                  SBC   HL,DE   
3DE2   7D                     LD   A,L   
3DE3   B4                     OR   H   
3DE4   CA 50 3E               JP   Z,expectM_3111S148   
3DE7   CD 7A 0F               CALL   printStr   
3DEA   43 6F 64 65 3A 20 31 20 31 30 20 32 30 20 5C 61 62 7B 2F 66 7B 25 61 7D 7B 25 62 7D 20 3F 7D 5E 20 2B 00 .CSTR   "Code: ","1 10 20 \\ab{/f{%a}{%b} ?}^ +"   
3E0D   CD 7A 0F               CALL   printStr   
3E10   0D 0A 0D 0A 45 78 70 65 63 74 65 64 3A 20 00 .CSTR   "\r\n\r\nExpected: "   
3E1F   21 15 00               LD   hl,21   
3E22   E5                     PUSH   hl   
3E23   E5                     PUSH   hl   
3E24   CD 77 10               CALL   run   
3E27   2E 60 24 60 2E 68 00   .CSTR   ".`$`.h"   
3E2E   CD 7A 0F               CALL   printStr   
3E31   0D 0A 0D 0A 41 63 74 75 61 6C 3A 20 00 .CSTR   "\r\n\r\nActual: "   
3E3E   E1                     POP   hl   
3E3F   E5                     PUSH   hl   
3E40   E5                     PUSH   hl   
3E41   CD 77 10               CALL   run   
3E44   2E 60 24 60 2E 68 60 0D 0A 60 00 .CSTR   ".`$`.h`\r\n`"   
3E4F   76                     HALT      
3E50                EXPECTM_3111S148:      
3E50   E1                     POP   HL   
3E51                          ;*Macro unroll:  test "[10 20 30] 1;", 20
3E51   31 00 53               LD   SP,STACK   
3E54   CD AE 0F               CALL   coldInit   
3E57   CD CC 51               CALL   execStr   
3E5A   5B 31 30 20 32 30 20 33 30 5D 20 31 3B 00 DB   "[10 20 30] 1;",0   
3E68   E1                     POP   HL   
3E69   E5                     PUSH   HL   
3E6A   11 14 00               LD   DE,20   
3E6D   B7                     OR   A   
3E6E   ED 52                  SBC   HL,DE   
3E70   7D                     LD   A,L   
3E71   B4                     OR   H   
3E72   CA CF 3E               JP   Z,expectM_3112S149   
3E75   CD 7A 0F               CALL   printStr   
3E78   43 6F 64 65 3A 20 5B 31 30 20 32 30 20 33 30 5D 20 31 3B 00 .CSTR   "Code: ","[10 20 30] 1;"   
3E8C   CD 7A 0F               CALL   printStr   
3E8F   0D 0A 0D 0A 45 78 70 65 63 74 65 64 3A 20 00 .CSTR   "\r\n\r\nExpected: "   
3E9E   21 14 00               LD   hl,20   
3EA1   E5                     PUSH   hl   
3EA2   E5                     PUSH   hl   
3EA3   CD 77 10               CALL   run   
3EA6   2E 60 24 60 2E 68 00   .CSTR   ".`$`.h"   
3EAD   CD 7A 0F               CALL   printStr   
3EB0   0D 0A 0D 0A 41 63 74 75 61 6C 3A 20 00 .CSTR   "\r\n\r\nActual: "   
3EBD   E1                     POP   hl   
3EBE   E5                     PUSH   hl   
3EBF   E5                     PUSH   hl   
3EC0   CD 77 10               CALL   run   
3EC3   2E 60 24 60 2E 68 60 0D 0A 60 00 .CSTR   ".`$`.h`\r\n`"   
3ECE   76                     HALT      
3ECF                EXPECTM_3112S149:      
3ECF   E1                     POP   HL   
3ED0                          ;*Macro unroll:  test "[10 20 30 40] /al", 4
3ED0   31 00 53               LD   SP,STACK   
3ED3   CD AE 0F               CALL   coldInit   
3ED6   CD CC 51               CALL   execStr   
3ED9   5B 31 30 20 32 30 20 33 30 20 34 30 5D 20 2F 61 6C 00 DB   "[10 20 30 40] /al",0   
3EEB   E1                     POP   HL   
3EEC   E5                     PUSH   HL   
3EED   11 04 00               LD   DE,4   
3EF0   B7                     OR   A   
3EF1   ED 52                  SBC   HL,DE   
3EF3   7D                     LD   A,L   
3EF4   B4                     OR   H   
3EF5   CA 56 3F               JP   Z,expectM_3113S150   
3EF8   CD 7A 0F               CALL   printStr   
3EFB   43 6F 64 65 3A 20 5B 31 30 20 32 30 20 33 30 20 34 30 5D 20 2F 61 6C 00 .CSTR   "Code: ","[10 20 30 40] /al"   
3F13   CD 7A 0F               CALL   printStr   
3F16   0D 0A 0D 0A 45 78 70 65 63 74 65 64 3A 20 00 .CSTR   "\r\n\r\nExpected: "   
3F25   21 04 00               LD   hl,4   
3F28   E5                     PUSH   hl   
3F29   E5                     PUSH   hl   
3F2A   CD 77 10               CALL   run   
3F2D   2E 60 24 60 2E 68 00   .CSTR   ".`$`.h"   
3F34   CD 7A 0F               CALL   printStr   
3F37   0D 0A 0D 0A 41 63 74 75 61 6C 3A 20 00 .CSTR   "\r\n\r\nActual: "   
3F44   E1                     POP   hl   
3F45   E5                     PUSH   hl   
3F46   E5                     PUSH   hl   
3F47   CD 77 10               CALL   run   
3F4A   2E 60 24 60 2E 68 60 0D 0A 60 00 .CSTR   ".`$`.h`\r\n`"   
3F55   76                     HALT      
3F56                EXPECTM_3113S150:      
3F56   E1                     POP   HL   
3F57                          ;*Macro unroll:  test "/bm [1 2 3] 1;", 2
3F57   31 00 53               LD   SP,STACK   
3F5A   CD AE 0F               CALL   coldInit   
3F5D   CD CC 51               CALL   execStr   
3F60   2F 62 6D 20 5B 31 20 32 20 33 5D 20 31 3B 00 DB   "/bm [1 2 3] 1;",0   
3F6F   E1                     POP   HL   
3F70   E5                     PUSH   HL   
3F71   11 02 00               LD   DE,2   
3F74   B7                     OR   A   
3F75   ED 52                  SBC   HL,DE   
3F77   7D                     LD   A,L   
3F78   B4                     OR   H   
3F79   CA D7 3F               JP   Z,expectM_3114S151   
3F7C   CD 7A 0F               CALL   printStr   
3F7F   43 6F 64 65 3A 20 2F 62 6D 20 5B 31 20 32 20 33 5D 20 31 3B 00 .CSTR   "Code: ","/bm [1 2 3] 1;"   
3F94   CD 7A 0F               CALL   printStr   
3F97   0D 0A 0D 0A 45 78 70 65 63 74 65 64 3A 20 00 .CSTR   "\r\n\r\nExpected: "   
3FA6   21 02 00               LD   hl,2   
3FA9   E5                     PUSH   hl   
3FAA   E5                     PUSH   hl   
3FAB   CD 77 10               CALL   run   
3FAE   2E 60 24 60 2E 68 00   .CSTR   ".`$`.h"   
3FB5   CD 7A 0F               CALL   printStr   
3FB8   0D 0A 0D 0A 41 63 74 75 61 6C 3A 20 00 .CSTR   "\r\n\r\nActual: "   
3FC5   E1                     POP   hl   
3FC6   E5                     PUSH   hl   
3FC7   E5                     PUSH   hl   
3FC8   CD 77 10               CALL   run   
3FCB   2E 60 24 60 2E 68 60 0D 0A 60 00 .CSTR   ".`$`.h`\r\n`"   
3FD6   76                     HALT      
3FD7                EXPECTM_3114S151:      
3FD7   E1                     POP   HL   
3FD8                          ;*Macro unroll:  test "/bm [_A _B _C] 1;", 66
3FD8   31 00 53               LD   SP,STACK   
3FDB   CD AE 0F               CALL   coldInit   
3FDE   CD CC 51               CALL   execStr   
3FE1   2F 62 6D 20 5B 5F 41 20 5F 42 20 5F 43 5D 20 31 3B 00 DB   "/bm [_A _B _C] 1;",0   
3FF3   E1                     POP   HL   
3FF4   E5                     PUSH   HL   
3FF5   11 42 00               LD   DE,66   
3FF8   B7                     OR   A   
3FF9   ED 52                  SBC   HL,DE   
3FFB   7D                     LD   A,L   
3FFC   B4                     OR   H   
3FFD   CA 5E 40               JP   Z,expectM_3115S152   
4000   CD 7A 0F               CALL   printStr   
4003   43 6F 64 65 3A 20 2F 62 6D 20 5B 5F 41 20 5F 42 20 5F 43 5D 20 31 3B 00 .CSTR   "Code: ","/bm [_A _B _C] 1;"   
401B   CD 7A 0F               CALL   printStr   
401E   0D 0A 0D 0A 45 78 70 65 63 74 65 64 3A 20 00 .CSTR   "\r\n\r\nExpected: "   
402D   21 42 00               LD   hl,66   
4030   E5                     PUSH   hl   
4031   E5                     PUSH   hl   
4032   CD 77 10               CALL   run   
4035   2E 60 24 60 2E 68 00   .CSTR   ".`$`.h"   
403C   CD 7A 0F               CALL   printStr   
403F   0D 0A 0D 0A 41 63 74 75 61 6C 3A 20 00 .CSTR   "\r\n\r\nActual: "   
404C   E1                     POP   hl   
404D   E5                     PUSH   hl   
404E   E5                     PUSH   hl   
404F   CD 77 10               CALL   run   
4052   2E 60 24 60 2E 68 60 0D 0A 60 00 .CSTR   ".`$`.h`\r\n`"   
405D   76                     HALT      
405E                EXPECTM_3115S152:      
405E   E1                     POP   HL   
405F                          ;*Macro unroll:  test "[{10}{20}{30}] 0;^ ", 10
405F   31 00 53               LD   SP,STACK   
4062   CD AE 0F               CALL   coldInit   
4065   CD CC 51               CALL   execStr   
4068   5B 7B 31 30 7D 7B 32 30 7D 7B 33 30 7D 5D 20 30 3B 5E 20 00 DB   "[{10}{20}{30}] 0;^ ",0   
407C   E1                     POP   HL   
407D   E5                     PUSH   HL   
407E   11 0A 00               LD   DE,10   
4081   B7                     OR   A   
4082   ED 52                  SBC   HL,DE   
4084   7D                     LD   A,L   
4085   B4                     OR   H   
4086   CA E9 40               JP   Z,expectM_3116S153   
4089   CD 7A 0F               CALL   printStr   
408C   43 6F 64 65 3A 20 5B 7B 31 30 7D 7B 32 30 7D 7B 33 30 7D 5D 20 30 3B 5E 20 00 .CSTR   "Code: ","[{10}{20}{30}] 0;^ "   
40A6   CD 7A 0F               CALL   printStr   
40A9   0D 0A 0D 0A 45 78 70 65 63 74 65 64 3A 20 00 .CSTR   "\r\n\r\nExpected: "   
40B8   21 0A 00               LD   hl,10   
40BB   E5                     PUSH   hl   
40BC   E5                     PUSH   hl   
40BD   CD 77 10               CALL   run   
40C0   2E 60 24 60 2E 68 00   .CSTR   ".`$`.h"   
40C7   CD 7A 0F               CALL   printStr   
40CA   0D 0A 0D 0A 41 63 74 75 61 6C 3A 20 00 .CSTR   "\r\n\r\nActual: "   
40D7   E1                     POP   hl   
40D8   E5                     PUSH   hl   
40D9   E5                     PUSH   hl   
40DA   CD 77 10               CALL   run   
40DD   2E 60 24 60 2E 68 60 0D 0A 60 00 .CSTR   ".`$`.h`\r\n`"   
40E8   76                     HALT      
40E9                EXPECTM_3116S153:      
40E9   E1                     POP   HL   
40EA                          ;*Macro unroll:  test "10 20 \\ab{[{%a}{%b}] 0;^}^", 10
40EA   31 00 53               LD   SP,STACK   
40ED   CD AE 0F               CALL   coldInit   
40F0   CD CC 51               CALL   execStr   
40F3   31 30 20 32 30 20 5C 61 62 7B 5B 7B 25 61 7D 7B 25 62 7D 5D 20 30 3B 5E 7D 5E 00 DB   "10 20 \\ab{[{%a}{%b}] 0;^}^",0   
410E   E1                     POP   HL   
410F   E5                     PUSH   HL   
4110   11 0A 00               LD   DE,10   
4113   B7                     OR   A   
4114   ED 52                  SBC   HL,DE   
4116   7D                     LD   A,L   
4117   B4                     OR   H   
4118   CA 82 41               JP   Z,expectM_3117S154   
411B   CD 7A 0F               CALL   printStr   
411E   43 6F 64 65 3A 20 31 30 20 32 30 20 5C 61 62 7B 5B 7B 25 61 7D 7B 25 62 7D 5D 20 30 3B 5E 7D 5E 00 .CSTR   "Code: ","10 20 \\ab{[{%a}{%b}] 0;^}^"   
413F   CD 7A 0F               CALL   printStr   
4142   0D 0A 0D 0A 45 78 70 65 63 74 65 64 3A 20 00 .CSTR   "\r\n\r\nExpected: "   
4151   21 0A 00               LD   hl,10   
4154   E5                     PUSH   hl   
4155   E5                     PUSH   hl   
4156   CD 77 10               CALL   run   
4159   2E 60 24 60 2E 68 00   .CSTR   ".`$`.h"   
4160   CD 7A 0F               CALL   printStr   
4163   0D 0A 0D 0A 41 63 74 75 61 6C 3A 20 00 .CSTR   "\r\n\r\nActual: "   
4170   E1                     POP   hl   
4171   E5                     PUSH   hl   
4172   E5                     PUSH   hl   
4173   CD 77 10               CALL   run   
4176   2E 60 24 60 2E 68 60 0D 0A 60 00 .CSTR   ".`$`.h`\r\n`"   
4181   76                     HALT      
4182                EXPECTM_3117S154:      
4182   E1                     POP   HL   
4183                          ;*Macro unroll:  test "0 10 20 \\iab{[{%a}{%b}] %i;^}^", 10
4183   31 00 53               LD   SP,STACK   
4186   CD AE 0F               CALL   coldInit   
4189   CD CC 51               CALL   execStr   
418C   30 20 31 30 20 32 30 20 5C 69 61 62 7B 5B 7B 25 61 7D 7B 25 62 7D 5D 20 25 69 3B 5E 7D 5E 00 DB   "0 10 20 \\iab{[{%a}{%b}] %i;^}^",0   
41AB   E1                     POP   HL   
41AC   E5                     PUSH   HL   
41AD   11 0A 00               LD   DE,10   
41B0   B7                     OR   A   
41B1   ED 52                  SBC   HL,DE   
41B3   7D                     LD   A,L   
41B4   B4                     OR   H   
41B5   CA 23 42               JP   Z,expectM_3118S155   
41B8   CD 7A 0F               CALL   printStr   
41BB   43 6F 64 65 3A 20 30 20 31 30 20 32 30 20 5C 69 61 62 7B 5B 7B 25 61 7D 7B 25 62 7D 5D 20 25 69 3B 5E 7D 5E 00 .CSTR   "Code: ","0 10 20 \\iab{[{%a}{%b}] %i;^}^"   
41E0   CD 7A 0F               CALL   printStr   
41E3   0D 0A 0D 0A 45 78 70 65 63 74 65 64 3A 20 00 .CSTR   "\r\n\r\nExpected: "   
41F2   21 0A 00               LD   hl,10   
41F5   E5                     PUSH   hl   
41F6   E5                     PUSH   hl   
41F7   CD 77 10               CALL   run   
41FA   2E 60 24 60 2E 68 00   .CSTR   ".`$`.h"   
4201   CD 7A 0F               CALL   printStr   
4204   0D 0A 0D 0A 41 63 74 75 61 6C 3A 20 00 .CSTR   "\r\n\r\nActual: "   
4211   E1                     POP   hl   
4212   E5                     PUSH   hl   
4213   E5                     PUSH   hl   
4214   CD 77 10               CALL   run   
4217   2E 60 24 60 2E 68 60 0D 0A 60 00 .CSTR   ".`$`.h`\r\n`"   
4222   76                     HALT      
4223                EXPECTM_3118S155:      
4223   E1                     POP   HL   
4224                          ;*Macro unroll:  test "1 10 20 \\iab{[{%a}{%b}] %i;^}^", 20
4224   31 00 53               LD   SP,STACK   
4227   CD AE 0F               CALL   coldInit   
422A   CD CC 51               CALL   execStr   
422D   31 20 31 30 20 32 30 20 5C 69 61 62 7B 5B 7B 25 61 7D 7B 25 62 7D 5D 20 25 69 3B 5E 7D 5E 00 DB   "1 10 20 \\iab{[{%a}{%b}] %i;^}^",0   
424C   E1                     POP   HL   
424D   E5                     PUSH   HL   
424E   11 14 00               LD   DE,20   
4251   B7                     OR   A   
4252   ED 52                  SBC   HL,DE   
4254   7D                     LD   A,L   
4255   B4                     OR   H   
4256   CA C4 42               JP   Z,expectM_3119S156   
4259   CD 7A 0F               CALL   printStr   
425C   43 6F 64 65 3A 20 31 20 31 30 20 32 30 20 5C 69 61 62 7B 5B 7B 25 61 7D 7B 25 62 7D 5D 20 25 69 3B 5E 7D 5E 00 .CSTR   "Code: ","1 10 20 \\iab{[{%a}{%b}] %i;^}^"   
4281   CD 7A 0F               CALL   printStr   
4284   0D 0A 0D 0A 45 78 70 65 63 74 65 64 3A 20 00 .CSTR   "\r\n\r\nExpected: "   
4293   21 14 00               LD   hl,20   
4296   E5                     PUSH   hl   
4297   E5                     PUSH   hl   
4298   CD 77 10               CALL   run   
429B   2E 60 24 60 2E 68 00   .CSTR   ".`$`.h"   
42A2   CD 7A 0F               CALL   printStr   
42A5   0D 0A 0D 0A 41 63 74 75 61 6C 3A 20 00 .CSTR   "\r\n\r\nActual: "   
42B2   E1                     POP   hl   
42B3   E5                     PUSH   hl   
42B4   E5                     PUSH   hl   
42B5   CD 77 10               CALL   run   
42B8   2E 60 24 60 2E 68 60 0D 0A 60 00 .CSTR   ".`$`.h`\r\n`"   
42C3   76                     HALT      
42C4                EXPECTM_3119S156:      
42C4   E1                     POP   HL   
42C5                          ;*Macro unroll:  test "3i= ( i i-- i/br )^ + +", 6
42C5   31 00 53               LD   SP,STACK   
42C8   CD AE 0F               CALL   coldInit   
42CB   CD CC 51               CALL   execStr   
42CE   33 69 3D 20 28 20 69 20 69 2D 2D 20 69 2F 62 72 20 29 5E 20 2B 20 2B 00 DB   "3i= ( i i-- i/br )^ + +",0   
42E6   E1                     POP   HL   
42E7   E5                     PUSH   HL   
42E8   11 06 00               LD   DE,6   
42EB   B7                     OR   A   
42EC   ED 52                  SBC   HL,DE   
42EE   7D                     LD   A,L   
42EF   B4                     OR   H   
42F0   CA 57 43               JP   Z,expectM_3120S157   
42F3   CD 7A 0F               CALL   printStr   
42F6   43 6F 64 65 3A 20 33 69 3D 20 28 20 69 20 69 2D 2D 20 69 2F 62 72 20 29 5E 20 2B 20 2B 00 .CSTR   "Code: ","3i= ( i i-- i/br )^ + +"   
4314   CD 7A 0F               CALL   printStr   
4317   0D 0A 0D 0A 45 78 70 65 63 74 65 64 3A 20 00 .CSTR   "\r\n\r\nExpected: "   
4326   21 06 00               LD   hl,6   
4329   E5                     PUSH   hl   
432A   E5                     PUSH   hl   
432B   CD 77 10               CALL   run   
432E   2E 60 24 60 2E 68 00   .CSTR   ".`$`.h"   
4335   CD 7A 0F               CALL   printStr   
4338   0D 0A 0D 0A 41 63 74 75 61 6C 3A 20 00 .CSTR   "\r\n\r\nActual: "   
4345   E1                     POP   hl   
4346   E5                     PUSH   hl   
4347   E5                     PUSH   hl   
4348   CD 77 10               CALL   run   
434B   2E 60 24 60 2E 68 60 0D 0A 60 00 .CSTR   ".`$`.h`\r\n`"   
4356   76                     HALT      
4357                EXPECTM_3120S157:      
4357   E1                     POP   HL   
4358                          ;*Macro unroll:  test "3i= [ ( i i-- i/br )^ ] 1;", 2
4358   31 00 53               LD   SP,STACK   
435B   CD AE 0F               CALL   coldInit   
435E   CD CC 51               CALL   execStr   
4361   33 69 3D 20 5B 20 28 20 69 20 69 2D 2D 20 69 2F 62 72 20 29 5E 20 5D 20 31 3B 00 DB   "3i= [ ( i i-- i/br )^ ] 1;",0   
437C   E1                     POP   HL   
437D   E5                     PUSH   HL   
437E   11 02 00               LD   DE,2   
4381   B7                     OR   A   
4382   ED 52                  SBC   HL,DE   
4384   7D                     LD   A,L   
4385   B4                     OR   H   
4386   CA F0 43               JP   Z,expectM_3121S158   
4389   CD 7A 0F               CALL   printStr   
438C   43 6F 64 65 3A 20 33 69 3D 20 5B 20 28 20 69 20 69 2D 2D 20 69 2F 62 72 20 29 5E 20 5D 20 31 3B 00 .CSTR   "Code: ","3i= [ ( i i-- i/br )^ ] 1;"   
43AD   CD 7A 0F               CALL   printStr   
43B0   0D 0A 0D 0A 45 78 70 65 63 74 65 64 3A 20 00 .CSTR   "\r\n\r\nExpected: "   
43BF   21 02 00               LD   hl,2   
43C2   E5                     PUSH   hl   
43C3   E5                     PUSH   hl   
43C4   CD 77 10               CALL   run   
43C7   2E 60 24 60 2E 68 00   .CSTR   ".`$`.h"   
43CE   CD 7A 0F               CALL   printStr   
43D1   0D 0A 0D 0A 41 63 74 75 61 6C 3A 20 00 .CSTR   "\r\n\r\nActual: "   
43DE   E1                     POP   hl   
43DF   E5                     PUSH   hl   
43E0   E5                     PUSH   hl   
43E1   CD 77 10               CALL   run   
43E4   2E 60 24 60 2E 68 60 0D 0A 60 00 .CSTR   ".`$`.h`\r\n`"   
43EF   76                     HALT      
43F0                EXPECTM_3121S158:      
43F0   E1                     POP   HL   
43F1                          ;*Macro unroll:  test "0 j= 4 i= ( i j + j= i i-- i/br )^ j ", 10
43F1   31 00 53               LD   SP,STACK   
43F4   CD AE 0F               CALL   coldInit   
43F7   CD CC 51               CALL   execStr   
43FA   30 20 6A 3D 20 34 20 69 3D 20 28 20 69 20 6A 20 2B 20 6A 3D 20 69 20 69 2D 2D 20 69 2F 62 72 20 29 5E 20 6A 20 00 DB   "0 j= 4 i= ( i j + j= i i-- i/br )^ j ",0   
4420   E1                     POP   HL   
4421   E5                     PUSH   HL   
4422   11 0A 00               LD   DE,10   
4425   B7                     OR   A   
4426   ED 52                  SBC   HL,DE   
4428   7D                     LD   A,L   
4429   B4                     OR   H   
442A   CA 9F 44               JP   Z,expectM_3122S159   
442D   CD 7A 0F               CALL   printStr   
4430   43 6F 64 65 3A 20 30 20 6A 3D 20 34 20 69 3D 20 28 20 69 20 6A 20 2B 20 6A 3D 20 69 20 69 2D 2D 20 69 2F 62 72 20 29 5E 20 6A 20 00 .CSTR   "Code: ","0 j= 4 i= ( i j + j= i i-- i/br )^ j "   
445C   CD 7A 0F               CALL   printStr   
445F   0D 0A 0D 0A 45 78 70 65 63 74 65 64 3A 20 00 .CSTR   "\r\n\r\nExpected: "   
446E   21 0A 00               LD   hl,10   
4471   E5                     PUSH   hl   
4472   E5                     PUSH   hl   
4473   CD 77 10               CALL   run   
4476   2E 60 24 60 2E 68 00   .CSTR   ".`$`.h"   
447D   CD 7A 0F               CALL   printStr   
4480   0D 0A 0D 0A 41 63 74 75 61 6C 3A 20 00 .CSTR   "\r\n\r\nActual: "   
448D   E1                     POP   hl   
448E   E5                     PUSH   hl   
448F   E5                     PUSH   hl   
4490   CD 77 10               CALL   run   
4493   2E 60 24 60 2E 68 60 0D 0A 60 00 .CSTR   ".`$`.h`\r\n`"   
449E   76                     HALT      
449F                EXPECTM_3122S159:      
449F   E1                     POP   HL   
44A0                          ;*Macro unroll:  test "0j= 0i= ( i j+= i++ i 5< /br )^ j ", 10
44A0   31 00 53               LD   SP,STACK   
44A3   CD AE 0F               CALL   coldInit   
44A6   CD CC 51               CALL   execStr   
44A9   30 6A 3D 20 30 69 3D 20 28 20 69 20 6A 2B 3D 20 69 2B 2B 20 69 20 35 3C 20 2F 62 72 20 29 5E 20 6A 20 00 DB   "0j= 0i= ( i j+= i++ i 5< /br )^ j ",0   
44CC   E1                     POP   HL   
44CD   E5                     PUSH   HL   
44CE   11 0A 00               LD   DE,10   
44D1   B7                     OR   A   
44D2   ED 52                  SBC   HL,DE   
44D4   7D                     LD   A,L   
44D5   B4                     OR   H   
44D6   CA 48 45               JP   Z,expectM_3123S160   
44D9   CD 7A 0F               CALL   printStr   
44DC   43 6F 64 65 3A 20 30 6A 3D 20 30 69 3D 20 28 20 69 20 6A 2B 3D 20 69 2B 2B 20 69 20 35 3C 20 2F 62 72 20 29 5E 20 6A 20 00 .CSTR   "Code: ","0j= 0i= ( i j+= i++ i 5< /br )^ j "   
4505   CD 7A 0F               CALL   printStr   
4508   0D 0A 0D 0A 45 78 70 65 63 74 65 64 3A 20 00 .CSTR   "\r\n\r\nExpected: "   
4517   21 0A 00               LD   hl,10   
451A   E5                     PUSH   hl   
451B   E5                     PUSH   hl   
451C   CD 77 10               CALL   run   
451F   2E 60 24 60 2E 68 00   .CSTR   ".`$`.h"   
4526   CD 7A 0F               CALL   printStr   
4529   0D 0A 0D 0A 41 63 74 75 61 6C 3A 20 00 .CSTR   "\r\n\r\nActual: "   
4536   E1                     POP   hl   
4537   E5                     PUSH   hl   
4538   E5                     PUSH   hl   
4539   CD 77 10               CALL   run   
453C   2E 60 24 60 2E 68 60 0D 0A 60 00 .CSTR   ".`$`.h`\r\n`"   
4547   76                     HALT      
4548                EXPECTM_3123S160:      
4548   E1                     POP   HL   
4549                          ;*Macro unroll:  test "0t= 3i= (4j= (t++ j-- j/br)^ i-- i/br)^ t", 12
4549   31 00 53               LD   SP,STACK   
454C   CD AE 0F               CALL   coldInit   
454F   CD CC 51               CALL   execStr   
4552   30 74 3D 20 33 69 3D 20 28 34 6A 3D 20 28 74 2B 2B 20 6A 2D 2D 20 6A 2F 62 72 29 5E 20 69 2D 2D 20 69 2F 62 72 29 5E 20 74 00 DB   "0t= 3i= (4j= (t++ j-- j/br)^ i-- i/br)^ t",0   
457C   E1                     POP   HL   
457D   E5                     PUSH   HL   
457E   11 0C 00               LD   DE,12   
4581   B7                     OR   A   
4582   ED 52                  SBC   HL,DE   
4584   7D                     LD   A,L   
4585   B4                     OR   H   
4586   CA FF 45               JP   Z,expectM_3124S161   
4589   CD 7A 0F               CALL   printStr   
458C   43 6F 64 65 3A 20 30 74 3D 20 33 69 3D 20 28 34 6A 3D 20 28 74 2B 2B 20 6A 2D 2D 20 6A 2F 62 72 29 5E 20 69 2D 2D 20 69 2F 62 72 29 5E 20 74 00 .CSTR   "Code: ","0t= 3i= (4j= (t++ j-- j/br)^ i-- i/br)^ t"   
45BC   CD 7A 0F               CALL   printStr   
45BF   0D 0A 0D 0A 45 78 70 65 63 74 65 64 3A 20 00 .CSTR   "\r\n\r\nExpected: "   
45CE   21 0C 00               LD   hl,12   
45D1   E5                     PUSH   hl   
45D2   E5                     PUSH   hl   
45D3   CD 77 10               CALL   run   
45D6   2E 60 24 60 2E 68 00   .CSTR   ".`$`.h"   
45DD   CD 7A 0F               CALL   printStr   
45E0   0D 0A 0D 0A 41 63 74 75 61 6C 3A 20 00 .CSTR   "\r\n\r\nActual: "   
45ED   E1                     POP   hl   
45EE   E5                     PUSH   hl   
45EF   E5                     PUSH   hl   
45F0   CD 77 10               CALL   run   
45F3   2E 60 24 60 2E 68 60 0D 0A 60 00 .CSTR   ".`$`.h`\r\n`"   
45FE   76                     HALT      
45FF                EXPECTM_3124S161:      
45FF   E1                     POP   HL   
4600                          ;*Macro unroll:  test "3 \\a:bc{%a %c = ( %c %c -- %c /br )^ + +}^", 6
4600   31 00 53               LD   SP,STACK   
4603   CD AE 0F               CALL   coldInit   
4606   CD CC 51               CALL   execStr   
4609   33 20 5C 61 3A 62 63 7B 25 61 20 25 63 20 3D 20 28 20 25 63 20 25 63 20 2D 2D 20 25 63 20 2F 62 72 20 29 5E 20 2B 20 2B 7D 5E 00 DB   "3 \\a:bc{%a %c = ( %c %c -- %c /br )^ + +}^",0   
4634   E1                     POP   HL   
4635   E5                     PUSH   HL   
4636   11 06 00               LD   DE,6   
4639   B7                     OR   A   
463A   ED 52                  SBC   HL,DE   
463C   7D                     LD   A,L   
463D   B4                     OR   H   
463E   CA B8 46               JP   Z,expectM_3125S162   
4641   CD 7A 0F               CALL   printStr   
4644   43 6F 64 65 3A 20 33 20 5C 61 3A 62 63 7B 25 61 20 25 63 20 3D 20 28 20 25 63 20 25 63 20 2D 2D 20 25 63 20 2F 62 72 20 29 5E 20 2B 20 2B 7D 5E 00 .CSTR   "Code: ","3 \\a:bc{%a %c = ( %c %c -- %c /br )^ + +}^"   
4675   CD 7A 0F               CALL   printStr   
4678   0D 0A 0D 0A 45 78 70 65 63 74 65 64 3A 20 00 .CSTR   "\r\n\r\nExpected: "   
4687   21 06 00               LD   hl,6   
468A   E5                     PUSH   hl   
468B   E5                     PUSH   hl   
468C   CD 77 10               CALL   run   
468F   2E 60 24 60 2E 68 00   .CSTR   ".`$`.h"   
4696   CD 7A 0F               CALL   printStr   
4699   0D 0A 0D 0A 41 63 74 75 61 6C 3A 20 00 .CSTR   "\r\n\r\nActual: "   
46A6   E1                     POP   hl   
46A7   E5                     PUSH   hl   
46A8   E5                     PUSH   hl   
46A9   CD 77 10               CALL   run   
46AC   2E 60 24 60 2E 68 60 0D 0A 60 00 .CSTR   ".`$`.h`\r\n`"   
46B7   76                     HALT      
46B8                EXPECTM_3125S162:      
46B8   E1                     POP   HL   
46B9                          ;*Macro unroll:  test "/t \\f{1 %f/br 2 +}^",3
46B9   31 00 53               LD   SP,STACK   
46BC   CD AE 0F               CALL   coldInit   
46BF   CD CC 51               CALL   execStr   
46C2   2F 74 20 5C 66 7B 31 20 25 66 2F 62 72 20 32 20 2B 7D 5E 00 DB   "/t \\f{1 %f/br 2 +}^",0   
46D6   E1                     POP   HL   
46D7   E5                     PUSH   HL   
46D8   11 03 00               LD   DE,3   
46DB   B7                     OR   A   
46DC   ED 52                  SBC   HL,DE   
46DE   7D                     LD   A,L   
46DF   B4                     OR   H   
46E0   CA 43 47               JP   Z,expectM_3126S163   
46E3   CD 7A 0F               CALL   printStr   
46E6   43 6F 64 65 3A 20 2F 74 20 5C 66 7B 31 20 25 66 2F 62 72 20 32 20 2B 7D 5E 00 .CSTR   "Code: ","/t \\f{1 %f/br 2 +}^"   
4700   CD 7A 0F               CALL   printStr   
4703   0D 0A 0D 0A 45 78 70 65 63 74 65 64 3A 20 00 .CSTR   "\r\n\r\nExpected: "   
4712   21 03 00               LD   hl,3   
4715   E5                     PUSH   hl   
4716   E5                     PUSH   hl   
4717   CD 77 10               CALL   run   
471A   2E 60 24 60 2E 68 00   .CSTR   ".`$`.h"   
4721   CD 7A 0F               CALL   printStr   
4724   0D 0A 0D 0A 41 63 74 75 61 6C 3A 20 00 .CSTR   "\r\n\r\nActual: "   
4731   E1                     POP   hl   
4732   E5                     PUSH   hl   
4733   E5                     PUSH   hl   
4734   CD 77 10               CALL   run   
4737   2E 60 24 60 2E 68 60 0D 0A 60 00 .CSTR   ".`$`.h`\r\n`"   
4742   76                     HALT      
4743                EXPECTM_3126S163:      
4743   E1                     POP   HL   
4744                          ;*Macro unroll:  test "/f \\f{1 %f/br 2 +}^",1
4744   31 00 53               LD   SP,STACK   
4747   CD AE 0F               CALL   coldInit   
474A   CD CC 51               CALL   execStr   
474D   2F 66 20 5C 66 7B 31 20 25 66 2F 62 72 20 32 20 2B 7D 5E 00 DB   "/f \\f{1 %f/br 2 +}^",0   
4761   E1                     POP   HL   
4762   E5                     PUSH   HL   
4763   11 01 00               LD   DE,1   
4766   B7                     OR   A   
4767   ED 52                  SBC   HL,DE   
4769   7D                     LD   A,L   
476A   B4                     OR   H   
476B   CA CE 47               JP   Z,expectM_3127S164   
476E   CD 7A 0F               CALL   printStr   
4771   43 6F 64 65 3A 20 2F 66 20 5C 66 7B 31 20 25 66 2F 62 72 20 32 20 2B 7D 5E 00 .CSTR   "Code: ","/f \\f{1 %f/br 2 +}^"   
478B   CD 7A 0F               CALL   printStr   
478E   0D 0A 0D 0A 45 78 70 65 63 74 65 64 3A 20 00 .CSTR   "\r\n\r\nExpected: "   
479D   21 01 00               LD   hl,1   
47A0   E5                     PUSH   hl   
47A1   E5                     PUSH   hl   
47A2   CD 77 10               CALL   run   
47A5   2E 60 24 60 2E 68 00   .CSTR   ".`$`.h"   
47AC   CD 7A 0F               CALL   printStr   
47AF   0D 0A 0D 0A 41 63 74 75 61 6C 3A 20 00 .CSTR   "\r\n\r\nActual: "   
47BC   E1                     POP   hl   
47BD   E5                     PUSH   hl   
47BE   E5                     PUSH   hl   
47BF   CD 77 10               CALL   run   
47C2   2E 60 24 60 2E 68 60 0D 0A 60 00 .CSTR   ".`$`.h`\r\n`"   
47CD   76                     HALT      
47CE                EXPECTM_3127S164:      
47CE   E1                     POP   HL   
47CF                          ;*Macro unroll:  test "_A 1 - /ad", NUL
47CF   31 00 53               LD   SP,STACK   
47D2   CD AE 0F               CALL   coldInit   
47D5   CD CC 51               CALL   execStr   
47D8   5F 41 20 31 20 2D 20 2F 61 64 00 DB   "_A 1 - /ad",0   
47E3   E1                     POP   HL   
47E4   E5                     PUSH   HL   
47E5   11 00 00               LD   DE,NUL   
47E8   B7                     OR   A   
47E9   ED 52                  SBC   HL,DE   
47EB   7D                     LD   A,L   
47EC   B4                     OR   H   
47ED   CA 47 48               JP   Z,expectM_3128S165   
47F0   CD 7A 0F               CALL   printStr   
47F3   43 6F 64 65 3A 20 5F 41 20 31 20 2D 20 2F 61 64 00 .CSTR   "Code: ","_A 1 - /ad"   
4804   CD 7A 0F               CALL   printStr   
4807   0D 0A 0D 0A 45 78 70 65 63 74 65 64 3A 20 00 .CSTR   "\r\n\r\nExpected: "   
4816   21 00 00               LD   hl,NUL   
4819   E5                     PUSH   hl   
481A   E5                     PUSH   hl   
481B   CD 77 10               CALL   run   
481E   2E 60 24 60 2E 68 00   .CSTR   ".`$`.h"   
4825   CD 7A 0F               CALL   printStr   
4828   0D 0A 0D 0A 41 63 74 75 61 6C 3A 20 00 .CSTR   "\r\n\r\nActual: "   
4835   E1                     POP   hl   
4836   E5                     PUSH   hl   
4837   E5                     PUSH   hl   
4838   CD 77 10               CALL   run   
483B   2E 60 24 60 2E 68 60 0D 0A 60 00 .CSTR   ".`$`.h`\r\n`"   
4846   76                     HALT      
4847                EXPECTM_3128S165:      
4847   E1                     POP   HL   
4848                          ;*Macro unroll:  test "_Z 1 + /ad", NUL
4848   31 00 53               LD   SP,STACK   
484B   CD AE 0F               CALL   coldInit   
484E   CD CC 51               CALL   execStr   
4851   5F 5A 20 31 20 2B 20 2F 61 64 00 DB   "_Z 1 + /ad",0   
485C   E1                     POP   HL   
485D   E5                     PUSH   HL   
485E   11 00 00               LD   DE,NUL   
4861   B7                     OR   A   
4862   ED 52                  SBC   HL,DE   
4864   7D                     LD   A,L   
4865   B4                     OR   H   
4866   CA C0 48               JP   Z,expectM_3129S166   
4869   CD 7A 0F               CALL   printStr   
486C   43 6F 64 65 3A 20 5F 5A 20 31 20 2B 20 2F 61 64 00 .CSTR   "Code: ","_Z 1 + /ad"   
487D   CD 7A 0F               CALL   printStr   
4880   0D 0A 0D 0A 45 78 70 65 63 74 65 64 3A 20 00 .CSTR   "\r\n\r\nExpected: "   
488F   21 00 00               LD   hl,NUL   
4892   E5                     PUSH   hl   
4893   E5                     PUSH   hl   
4894   CD 77 10               CALL   run   
4897   2E 60 24 60 2E 68 00   .CSTR   ".`$`.h"   
489E   CD 7A 0F               CALL   printStr   
48A1   0D 0A 0D 0A 41 63 74 75 61 6C 3A 20 00 .CSTR   "\r\n\r\nActual: "   
48AE   E1                     POP   hl   
48AF   E5                     PUSH   hl   
48B0   E5                     PUSH   hl   
48B1   CD 77 10               CALL   run   
48B4   2E 60 24 60 2E 68 60 0D 0A 60 00 .CSTR   ".`$`.h`\r\n`"   
48BF   76                     HALT      
48C0                EXPECTM_3129S166:      
48C0   E1                     POP   HL   
48C1                          ;*Macro unroll:  test "_a 1 - /ad", NUL
48C1   31 00 53               LD   SP,STACK   
48C4   CD AE 0F               CALL   coldInit   
48C7   CD CC 51               CALL   execStr   
48CA   5F 61 20 31 20 2D 20 2F 61 64 00 DB   "_a 1 - /ad",0   
48D5   E1                     POP   HL   
48D6   E5                     PUSH   HL   
48D7   11 00 00               LD   DE,NUL   
48DA   B7                     OR   A   
48DB   ED 52                  SBC   HL,DE   
48DD   7D                     LD   A,L   
48DE   B4                     OR   H   
48DF   CA 39 49               JP   Z,expectM_3130S167   
48E2   CD 7A 0F               CALL   printStr   
48E5   43 6F 64 65 3A 20 5F 61 20 31 20 2D 20 2F 61 64 00 .CSTR   "Code: ","_a 1 - /ad"   
48F6   CD 7A 0F               CALL   printStr   
48F9   0D 0A 0D 0A 45 78 70 65 63 74 65 64 3A 20 00 .CSTR   "\r\n\r\nExpected: "   
4908   21 00 00               LD   hl,NUL   
490B   E5                     PUSH   hl   
490C   E5                     PUSH   hl   
490D   CD 77 10               CALL   run   
4910   2E 60 24 60 2E 68 00   .CSTR   ".`$`.h"   
4917   CD 7A 0F               CALL   printStr   
491A   0D 0A 0D 0A 41 63 74 75 61 6C 3A 20 00 .CSTR   "\r\n\r\nActual: "   
4927   E1                     POP   hl   
4928   E5                     PUSH   hl   
4929   E5                     PUSH   hl   
492A   CD 77 10               CALL   run   
492D   2E 60 24 60 2E 68 60 0D 0A 60 00 .CSTR   ".`$`.h`\r\n`"   
4938   76                     HALT      
4939                EXPECTM_3130S167:      
4939   E1                     POP   HL   
493A                          ;*Macro unroll:  test "_z 1 + /ad", NUL
493A   31 00 53               LD   SP,STACK   
493D   CD AE 0F               CALL   coldInit   
4940   CD CC 51               CALL   execStr   
4943   5F 7A 20 31 20 2B 20 2F 61 64 00 DB   "_z 1 + /ad",0   
494E   E1                     POP   HL   
494F   E5                     PUSH   HL   
4950   11 00 00               LD   DE,NUL   
4953   B7                     OR   A   
4954   ED 52                  SBC   HL,DE   
4956   7D                     LD   A,L   
4957   B4                     OR   H   
4958   CA B2 49               JP   Z,expectM_3131S168   
495B   CD 7A 0F               CALL   printStr   
495E   43 6F 64 65 3A 20 5F 7A 20 31 20 2B 20 2F 61 64 00 .CSTR   "Code: ","_z 1 + /ad"   
496F   CD 7A 0F               CALL   printStr   
4972   0D 0A 0D 0A 45 78 70 65 63 74 65 64 3A 20 00 .CSTR   "\r\n\r\nExpected: "   
4981   21 00 00               LD   hl,NUL   
4984   E5                     PUSH   hl   
4985   E5                     PUSH   hl   
4986   CD 77 10               CALL   run   
4989   2E 60 24 60 2E 68 00   .CSTR   ".`$`.h"   
4990   CD 7A 0F               CALL   printStr   
4993   0D 0A 0D 0A 41 63 74 75 61 6C 3A 20 00 .CSTR   "\r\n\r\nActual: "   
49A0   E1                     POP   hl   
49A1   E5                     PUSH   hl   
49A2   E5                     PUSH   hl   
49A3   CD 77 10               CALL   run   
49A6   2E 60 24 60 2E 68 60 0D 0A 60 00 .CSTR   ".`$`.h`\r\n`"   
49B1   76                     HALT      
49B2                EXPECTM_3131S168:      
49B2   E1                     POP   HL   
49B3                          ;*Macro unroll:  test "_z /ad", VARS + (("z"-"a")+("Z"-"A")+1)*2
49B3   31 00 53               LD   SP,STACK   
49B6   CD AE 0F               CALL   coldInit   
49B9   CD CC 51               CALL   execStr   
49BC   5F 7A 20 2F 61 64 00   DB   "_z /ad",0   
49C3   E1                     POP   HL   
49C4   E5                     PUSH   HL   
49C5   11 66 55               LD   DE,VARS + (("z"-"a")+("Z"-"A")+1)*2   
49C8   B7                     OR   A   
49C9   ED 52                  SBC   HL,DE   
49CB   7D                     LD   A,L   
49CC   B4                     OR   H   
49CD   CA 23 4A               JP   Z,expectM_3132S169   
49D0   CD 7A 0F               CALL   printStr   
49D3   43 6F 64 65 3A 20 5F 7A 20 2F 61 64 00 .CSTR   "Code: ","_z /ad"   
49E0   CD 7A 0F               CALL   printStr   
49E3   0D 0A 0D 0A 45 78 70 65 63 74 65 64 3A 20 00 .CSTR   "\r\n\r\nExpected: "   
49F2   21 66 55               LD   hl,VARS + (("z"-"a")+("Z"-"A")+1)*2   
49F5   E5                     PUSH   hl   
49F6   E5                     PUSH   hl   
49F7   CD 77 10               CALL   run   
49FA   2E 60 24 60 2E 68 00   .CSTR   ".`$`.h"   
4A01   CD 7A 0F               CALL   printStr   
4A04   0D 0A 0D 0A 41 63 74 75 61 6C 3A 20 00 .CSTR   "\r\n\r\nActual: "   
4A11   E1                     POP   hl   
4A12   E5                     PUSH   hl   
4A13   E5                     PUSH   hl   
4A14   CD 77 10               CALL   run   
4A17   2E 60 24 60 2E 68 60 0D 0A 60 00 .CSTR   ".`$`.h`\r\n`"   
4A22   76                     HALT      
4A23                EXPECTM_3132S169:      
4A23   E1                     POP   HL   
4A24                          ;*Macro unroll:  test "_a /ad", VARS + ("Z"-"A"+1)*2
4A24   31 00 53               LD   SP,STACK   
4A27   CD AE 0F               CALL   coldInit   
4A2A   CD CC 51               CALL   execStr   
4A2D   5F 61 20 2F 61 64 00   DB   "_a /ad",0   
4A34   E1                     POP   HL   
4A35   E5                     PUSH   HL   
4A36   11 34 55               LD   DE,VARS + ("Z"-"A"+1)*2   
4A39   B7                     OR   A   
4A3A   ED 52                  SBC   HL,DE   
4A3C   7D                     LD   A,L   
4A3D   B4                     OR   H   
4A3E   CA 94 4A               JP   Z,expectM_3133S170   
4A41   CD 7A 0F               CALL   printStr   
4A44   43 6F 64 65 3A 20 5F 61 20 2F 61 64 00 .CSTR   "Code: ","_a /ad"   
4A51   CD 7A 0F               CALL   printStr   
4A54   0D 0A 0D 0A 45 78 70 65 63 74 65 64 3A 20 00 .CSTR   "\r\n\r\nExpected: "   
4A63   21 34 55               LD   hl,VARS + ("Z"-"A"+1)*2   
4A66   E5                     PUSH   hl   
4A67   E5                     PUSH   hl   
4A68   CD 77 10               CALL   run   
4A6B   2E 60 24 60 2E 68 00   .CSTR   ".`$`.h"   
4A72   CD 7A 0F               CALL   printStr   
4A75   0D 0A 0D 0A 41 63 74 75 61 6C 3A 20 00 .CSTR   "\r\n\r\nActual: "   
4A82   E1                     POP   hl   
4A83   E5                     PUSH   hl   
4A84   E5                     PUSH   hl   
4A85   CD 77 10               CALL   run   
4A88   2E 60 24 60 2E 68 60 0D 0A 60 00 .CSTR   ".`$`.h`\r\n`"   
4A93   76                     HALT      
4A94                EXPECTM_3133S170:      
4A94   E1                     POP   HL   
4A95                          ;*Macro unroll:  test "_Z /ad", VARS + ("Z"-"A")*2
4A95   31 00 53               LD   SP,STACK   
4A98   CD AE 0F               CALL   coldInit   
4A9B   CD CC 51               CALL   execStr   
4A9E   5F 5A 20 2F 61 64 00   DB   "_Z /ad",0   
4AA5   E1                     POP   HL   
4AA6   E5                     PUSH   HL   
4AA7   11 32 55               LD   DE,VARS + ("Z"-"A")*2   
4AAA   B7                     OR   A   
4AAB   ED 52                  SBC   HL,DE   
4AAD   7D                     LD   A,L   
4AAE   B4                     OR   H   
4AAF   CA 05 4B               JP   Z,expectM_3134S171   
4AB2   CD 7A 0F               CALL   printStr   
4AB5   43 6F 64 65 3A 20 5F 5A 20 2F 61 64 00 .CSTR   "Code: ","_Z /ad"   
4AC2   CD 7A 0F               CALL   printStr   
4AC5   0D 0A 0D 0A 45 78 70 65 63 74 65 64 3A 20 00 .CSTR   "\r\n\r\nExpected: "   
4AD4   21 32 55               LD   hl,VARS + ("Z"-"A")*2   
4AD7   E5                     PUSH   hl   
4AD8   E5                     PUSH   hl   
4AD9   CD 77 10               CALL   run   
4ADC   2E 60 24 60 2E 68 00   .CSTR   ".`$`.h"   
4AE3   CD 7A 0F               CALL   printStr   
4AE6   0D 0A 0D 0A 41 63 74 75 61 6C 3A 20 00 .CSTR   "\r\n\r\nActual: "   
4AF3   E1                     POP   hl   
4AF4   E5                     PUSH   hl   
4AF5   E5                     PUSH   hl   
4AF6   CD 77 10               CALL   run   
4AF9   2E 60 24 60 2E 68 60 0D 0A 60 00 .CSTR   ".`$`.h`\r\n`"   
4B04   76                     HALT      
4B05                EXPECTM_3134S171:      
4B05   E1                     POP   HL   
4B06                          ;*Macro unroll:  test "_A /ad", VARS
4B06   31 00 53               LD   SP,STACK   
4B09   CD AE 0F               CALL   coldInit   
4B0C   CD CC 51               CALL   execStr   
4B0F   5F 41 20 2F 61 64 00   DB   "_A /ad",0   
4B16   E1                     POP   HL   
4B17   E5                     PUSH   HL   
4B18   11 00 55               LD   DE,VARS   
4B1B   B7                     OR   A   
4B1C   ED 52                  SBC   HL,DE   
4B1E   7D                     LD   A,L   
4B1F   B4                     OR   H   
4B20   CA 76 4B               JP   Z,expectM_3135S172   
4B23   CD 7A 0F               CALL   printStr   
4B26   43 6F 64 65 3A 20 5F 41 20 2F 61 64 00 .CSTR   "Code: ","_A /ad"   
4B33   CD 7A 0F               CALL   printStr   
4B36   0D 0A 0D 0A 45 78 70 65 63 74 65 64 3A 20 00 .CSTR   "\r\n\r\nExpected: "   
4B45   21 00 55               LD   hl,VARS   
4B48   E5                     PUSH   hl   
4B49   E5                     PUSH   hl   
4B4A   CD 77 10               CALL   run   
4B4D   2E 60 24 60 2E 68 00   .CSTR   ".`$`.h"   
4B54   CD 7A 0F               CALL   printStr   
4B57   0D 0A 0D 0A 41 63 74 75 61 6C 3A 20 00 .CSTR   "\r\n\r\nActual: "   
4B64   E1                     POP   hl   
4B65   E5                     PUSH   hl   
4B66   E5                     PUSH   hl   
4B67   CD 77 10               CALL   run   
4B6A   2E 60 24 60 2E 68 60 0D 0A 60 00 .CSTR   ".`$`.h`\r\n`"   
4B75   76                     HALT      
4B76                EXPECTM_3135S172:      
4B76   E1                     POP   HL   
4B77                          ;*Macro unroll:  test "\\a{%a} F=1F^", 1
4B77   31 00 53               LD   SP,STACK   
4B7A   CD AE 0F               CALL   coldInit   
4B7D   CD CC 51               CALL   execStr   
4B80   5C 61 7B 25 61 7D 20 46 3D 31 46 5E 00 DB   "\\a{%a} F=1F^",0   
4B8D   E1                     POP   HL   
4B8E   E5                     PUSH   HL   
4B8F   11 01 00               LD   DE,1   
4B92   B7                     OR   A   
4B93   ED 52                  SBC   HL,DE   
4B95   7D                     LD   A,L   
4B96   B4                     OR   H   
4B97   CA F3 4B               JP   Z,expectM_3136S173   
4B9A   CD 7A 0F               CALL   printStr   
4B9D   43 6F 64 65 3A 20 5C 61 7B 25 61 7D 20 46 3D 31 46 5E 00 .CSTR   "Code: ","\\a{%a} F=1F^"   
4BB0   CD 7A 0F               CALL   printStr   
4BB3   0D 0A 0D 0A 45 78 70 65 63 74 65 64 3A 20 00 .CSTR   "\r\n\r\nExpected: "   
4BC2   21 01 00               LD   hl,1   
4BC5   E5                     PUSH   hl   
4BC6   E5                     PUSH   hl   
4BC7   CD 77 10               CALL   run   
4BCA   2E 60 24 60 2E 68 00   .CSTR   ".`$`.h"   
4BD1   CD 7A 0F               CALL   printStr   
4BD4   0D 0A 0D 0A 41 63 74 75 61 6C 3A 20 00 .CSTR   "\r\n\r\nActual: "   
4BE1   E1                     POP   hl   
4BE2   E5                     PUSH   hl   
4BE3   E5                     PUSH   hl   
4BE4   CD 77 10               CALL   run   
4BE7   2E 60 24 60 2E 68 60 0D 0A 60 00 .CSTR   ".`$`.h`\r\n`"   
4BF2   76                     HALT      
4BF3                EXPECTM_3136S173:      
4BF3   E1                     POP   HL   
4BF4                          ;*Macro unroll:  test "1 \\b{\\a{%a}}^F= 3F^",3
4BF4   31 00 53               LD   SP,STACK   
4BF7   CD AE 0F               CALL   coldInit   
4BFA   CD CC 51               CALL   execStr   
4BFD   31 20 5C 62 7B 5C 61 7B 25 61 7D 7D 5E 46 3D 20 33 46 5E 00 DB   "1 \\b{\\a{%a}}^F= 3F^",0   
4C11   E1                     POP   HL   
4C12   E5                     PUSH   HL   
4C13   11 03 00               LD   DE,3   
4C16   B7                     OR   A   
4C17   ED 52                  SBC   HL,DE   
4C19   7D                     LD   A,L   
4C1A   B4                     OR   H   
4C1B   CA 7E 4C               JP   Z,expectM_3137S174   
4C1E   CD 7A 0F               CALL   printStr   
4C21   43 6F 64 65 3A 20 31 20 5C 62 7B 5C 61 7B 25 61 7D 7D 5E 46 3D 20 33 46 5E 00 .CSTR   "Code: ","1 \\b{\\a{%a}}^F= 3F^"   
4C3B   CD 7A 0F               CALL   printStr   
4C3E   0D 0A 0D 0A 45 78 70 65 63 74 65 64 3A 20 00 .CSTR   "\r\n\r\nExpected: "   
4C4D   21 03 00               LD   hl,3   
4C50   E5                     PUSH   hl   
4C51   E5                     PUSH   hl   
4C52   CD 77 10               CALL   run   
4C55   2E 60 24 60 2E 68 00   .CSTR   ".`$`.h"   
4C5C   CD 7A 0F               CALL   printStr   
4C5F   0D 0A 0D 0A 41 63 74 75 61 6C 3A 20 00 .CSTR   "\r\n\r\nActual: "   
4C6C   E1                     POP   hl   
4C6D   E5                     PUSH   hl   
4C6E   E5                     PUSH   hl   
4C6F   CD 77 10               CALL   run   
4C72   2E 60 24 60 2E 68 60 0D 0A 60 00 .CSTR   ".`$`.h`\r\n`"   
4C7D   76                     HALT      
4C7E                EXPECTM_3137S174:      
4C7E   E1                     POP   HL   
4C7F                          ;*Macro unroll:  test "1 \\b{\\a{%a%b-}}^F= 3F^",2
4C7F   31 00 53               LD   SP,STACK   
4C82   CD AE 0F               CALL   coldInit   
4C85   CD CC 51               CALL   execStr   
4C88   31 20 5C 62 7B 5C 61 7B 25 61 25 62 2D 7D 7D 5E 46 3D 20 33 46 5E 00 DB   "1 \\b{\\a{%a%b-}}^F= 3F^",0   
4C9F   E1                     POP   HL   
4CA0   E5                     PUSH   HL   
4CA1   11 02 00               LD   DE,2   
4CA4   B7                     OR   A   
4CA5   ED 52                  SBC   HL,DE   
4CA7   7D                     LD   A,L   
4CA8   B4                     OR   H   
4CA9   CA 0F 4D               JP   Z,expectM_3138S175   
4CAC   CD 7A 0F               CALL   printStr   
4CAF   43 6F 64 65 3A 20 31 20 5C 62 7B 5C 61 7B 25 61 25 62 2D 7D 7D 5E 46 3D 20 33 46 5E 00 .CSTR   "Code: ","1 \\b{\\a{%a%b-}}^F= 3F^"   
4CCC   CD 7A 0F               CALL   printStr   
4CCF   0D 0A 0D 0A 45 78 70 65 63 74 65 64 3A 20 00 .CSTR   "\r\n\r\nExpected: "   
4CDE   21 02 00               LD   hl,2   
4CE1   E5                     PUSH   hl   
4CE2   E5                     PUSH   hl   
4CE3   CD 77 10               CALL   run   
4CE6   2E 60 24 60 2E 68 00   .CSTR   ".`$`.h"   
4CED   CD 7A 0F               CALL   printStr   
4CF0   0D 0A 0D 0A 41 63 74 75 61 6C 3A 20 00 .CSTR   "\r\n\r\nActual: "   
4CFD   E1                     POP   hl   
4CFE   E5                     PUSH   hl   
4CFF   E5                     PUSH   hl   
4D00   CD 77 10               CALL   run   
4D03   2E 60 24 60 2E 68 60 0D 0A 60 00 .CSTR   ".`$`.h`\r\n`"   
4D0E   76                     HALT      
4D0F                EXPECTM_3138S175:      
4D0F   E1                     POP   HL   
4D10                          ;*Macro unroll:  test "1 \\b{\\a:c{%a%b-%c= %c--%c}}^F= 3F^",1
4D10   31 00 53               LD   SP,STACK   
4D13   CD AE 0F               CALL   coldInit   
4D16   CD CC 51               CALL   execStr   
4D19   31 20 5C 62 7B 5C 61 3A 63 7B 25 61 25 62 2D 25 63 3D 20 25 63 2D 2D 25 63 7D 7D 5E 46 3D 20 33 46 5E 00 DB   "1 \\b{\\a:c{%a%b-%c= %c--%c}}^F= 3F^",0   
4D3C   E1                     POP   HL   
4D3D   E5                     PUSH   HL   
4D3E   11 01 00               LD   DE,1   
4D41   B7                     OR   A   
4D42   ED 52                  SBC   HL,DE   
4D44   7D                     LD   A,L   
4D45   B4                     OR   H   
4D46   CA B8 4D               JP   Z,expectM_3139S176   
4D49   CD 7A 0F               CALL   printStr   
4D4C   43 6F 64 65 3A 20 31 20 5C 62 7B 5C 61 3A 63 7B 25 61 25 62 2D 25 63 3D 20 25 63 2D 2D 25 63 7D 7D 5E 46 3D 20 33 46 5E 00 .CSTR   "Code: ","1 \\b{\\a:c{%a%b-%c= %c--%c}}^F= 3F^"   
4D75   CD 7A 0F               CALL   printStr   
4D78   0D 0A 0D 0A 45 78 70 65 63 74 65 64 3A 20 00 .CSTR   "\r\n\r\nExpected: "   
4D87   21 01 00               LD   hl,1   
4D8A   E5                     PUSH   hl   
4D8B   E5                     PUSH   hl   
4D8C   CD 77 10               CALL   run   
4D8F   2E 60 24 60 2E 68 00   .CSTR   ".`$`.h"   
4D96   CD 7A 0F               CALL   printStr   
4D99   0D 0A 0D 0A 41 63 74 75 61 6C 3A 20 00 .CSTR   "\r\n\r\nActual: "   
4DA6   E1                     POP   hl   
4DA7   E5                     PUSH   hl   
4DA8   E5                     PUSH   hl   
4DA9   CD 77 10               CALL   run   
4DAC   2E 60 24 60 2E 68 60 0D 0A 60 00 .CSTR   ".`$`.h`\r\n`"   
4DB7   76                     HALT      
4DB8                EXPECTM_3139S176:      
4DB8   E1                     POP   HL   
4DB9                          ;*Macro unroll:  test "1 \\b:c{\\a{%a%b-%c= %c--%c}}^F= 3F^",1
4DB9   31 00 53               LD   SP,STACK   
4DBC   CD AE 0F               CALL   coldInit   
4DBF   CD CC 51               CALL   execStr   
4DC2   31 20 5C 62 3A 63 7B 5C 61 7B 25 61 25 62 2D 25 63 3D 20 25 63 2D 2D 25 63 7D 7D 5E 46 3D 20 33 46 5E 00 DB   "1 \\b:c{\\a{%a%b-%c= %c--%c}}^F= 3F^",0   
4DE5   E1                     POP   HL   
4DE6   E5                     PUSH   HL   
4DE7   11 01 00               LD   DE,1   
4DEA   B7                     OR   A   
4DEB   ED 52                  SBC   HL,DE   
4DED   7D                     LD   A,L   
4DEE   B4                     OR   H   
4DEF   CA 61 4E               JP   Z,expectM_3140S177   
4DF2   CD 7A 0F               CALL   printStr   
4DF5   43 6F 64 65 3A 20 31 20 5C 62 3A 63 7B 5C 61 7B 25 61 25 62 2D 25 63 3D 20 25 63 2D 2D 25 63 7D 7D 5E 46 3D 20 33 46 5E 00 .CSTR   "Code: ","1 \\b:c{\\a{%a%b-%c= %c--%c}}^F= 3F^"   
4E1E   CD 7A 0F               CALL   printStr   
4E21   0D 0A 0D 0A 45 78 70 65 63 74 65 64 3A 20 00 .CSTR   "\r\n\r\nExpected: "   
4E30   21 01 00               LD   hl,1   
4E33   E5                     PUSH   hl   
4E34   E5                     PUSH   hl   
4E35   CD 77 10               CALL   run   
4E38   2E 60 24 60 2E 68 00   .CSTR   ".`$`.h"   
4E3F   CD 7A 0F               CALL   printStr   
4E42   0D 0A 0D 0A 41 63 74 75 61 6C 3A 20 00 .CSTR   "\r\n\r\nActual: "   
4E4F   E1                     POP   hl   
4E50   E5                     PUSH   hl   
4E51   E5                     PUSH   hl   
4E52   CD 77 10               CALL   run   
4E55   2E 60 24 60 2E 68 60 0D 0A 60 00 .CSTR   ".`$`.h`\r\n`"   
4E60   76                     HALT      
4E61                EXPECTM_3140S177:      
4E61   E1                     POP   HL   
4E62                          ;*Macro unroll:  test "1 \\b:c{\\a:d{%a%b-%c= %c--%c %d= %d++%d}}^F= 3F^",2
4E62   31 00 53               LD   SP,STACK   
4E65   CD AE 0F               CALL   coldInit   
4E68   CD CC 51               CALL   execStr   
4E6B   31 20 5C 62 3A 63 7B 5C 61 3A 64 7B 25 61 25 62 2D 25 63 3D 20 25 63 2D 2D 25 63 20 25 64 3D 20 25 64 2B 2B 25 64 7D 7D 5E 46 3D 20 33 46 5E 00 DB   "1 \\b:c{\\a:d{%a%b-%c= %c--%c %d= %d++%d}}^F= 3F^",0   
4E9B   E1                     POP   HL   
4E9C   E5                     PUSH   HL   
4E9D   11 02 00               LD   DE,2   
4EA0   B7                     OR   A   
4EA1   ED 52                  SBC   HL,DE   
4EA3   7D                     LD   A,L   
4EA4   B4                     OR   H   
4EA5   CA 24 4F               JP   Z,expectM_3141S178   
4EA8   CD 7A 0F               CALL   printStr   
4EAB   43 6F 64 65 3A 20 31 20 5C 62 3A 63 7B 5C 61 3A 64 7B 25 61 25 62 2D 25 63 3D 20 25 63 2D 2D 25 63 20 25 64 3D 20 25 64 2B 2B 25 64 7D 7D 5E 46 3D 20 33 46 5E 00 .CSTR   "Code: ","1 \\b:c{\\a:d{%a%b-%c= %c--%c %d= %d++%d}}^F= 3F^"   
4EE1   CD 7A 0F               CALL   printStr   
4EE4   0D 0A 0D 0A 45 78 70 65 63 74 65 64 3A 20 00 .CSTR   "\r\n\r\nExpected: "   
4EF3   21 02 00               LD   hl,2   
4EF6   E5                     PUSH   hl   
4EF7   E5                     PUSH   hl   
4EF8   CD 77 10               CALL   run   
4EFB   2E 60 24 60 2E 68 00   .CSTR   ".`$`.h"   
4F02   CD 7A 0F               CALL   printStr   
4F05   0D 0A 0D 0A 41 63 74 75 61 6C 3A 20 00 .CSTR   "\r\n\r\nActual: "   
4F12   E1                     POP   hl   
4F13   E5                     PUSH   hl   
4F14   E5                     PUSH   hl   
4F15   CD 77 10               CALL   run   
4F18   2E 60 24 60 2E 68 60 0D 0A 60 00 .CSTR   ".`$`.h`\r\n`"   
4F23   76                     HALT      
4F24                EXPECTM_3141S178:      
4F24   E1                     POP   HL   
4F25                          ;*Macro unroll:  test "'hello'/sl",5
4F25   31 00 53               LD   SP,STACK   
4F28   CD AE 0F               CALL   coldInit   
4F2B   CD CC 51               CALL   execStr   
4F2E   27 68 65 6C 6C 6F 27 2F 73 6C 00 DB   "'hello'/sl",0   
4F39   E1                     POP   HL   
4F3A   E5                     PUSH   HL   
4F3B   11 05 00               LD   DE,5   
4F3E   B7                     OR   A   
4F3F   ED 52                  SBC   HL,DE   
4F41   7D                     LD   A,L   
4F42   B4                     OR   H   
4F43   CA 9D 4F               JP   Z,expectM_3142S179   
4F46   CD 7A 0F               CALL   printStr   
4F49   43 6F 64 65 3A 20 27 68 65 6C 6C 6F 27 2F 73 6C 00 .CSTR   "Code: ","'hello'/sl"   
4F5A   CD 7A 0F               CALL   printStr   
4F5D   0D 0A 0D 0A 45 78 70 65 63 74 65 64 3A 20 00 .CSTR   "\r\n\r\nExpected: "   
4F6C   21 05 00               LD   hl,5   
4F6F   E5                     PUSH   hl   
4F70   E5                     PUSH   hl   
4F71   CD 77 10               CALL   run   
4F74   2E 60 24 60 2E 68 00   .CSTR   ".`$`.h"   
4F7B   CD 7A 0F               CALL   printStr   
4F7E   0D 0A 0D 0A 41 63 74 75 61 6C 3A 20 00 .CSTR   "\r\n\r\nActual: "   
4F8B   E1                     POP   hl   
4F8C   E5                     PUSH   hl   
4F8D   E5                     PUSH   hl   
4F8E   CD 77 10               CALL   run   
4F91   2E 60 24 60 2E 68 60 0D 0A 60 00 .CSTR   ".`$`.h`\r\n`"   
4F9C   76                     HALT      
4F9D                EXPECTM_3142S179:      
4F9D   E1                     POP   HL   
4F9E                          ;*Macro unroll:  test "'hello' 'hell' /sc", false
4F9E   31 00 53               LD   SP,STACK   
4FA1   CD AE 0F               CALL   coldInit   
4FA4   CD CC 51               CALL   execStr   
4FA7   27 68 65 6C 6C 6F 27 20 27 68 65 6C 6C 27 20 2F 73 63 00 DB   "'hello' 'hell' /sc",0   
4FBA   E1                     POP   HL   
4FBB   E5                     PUSH   HL   
4FBC   11 00 00               LD   DE,false   
4FBF   B7                     OR   A   
4FC0   ED 52                  SBC   HL,DE   
4FC2   7D                     LD   A,L   
4FC3   B4                     OR   H   
4FC4   CA 26 50               JP   Z,expectM_3143S180   
4FC7   CD 7A 0F               CALL   printStr   
4FCA   43 6F 64 65 3A 20 27 68 65 6C 6C 6F 27 20 27 68 65 6C 6C 27 20 2F 73 63 00 .CSTR   "Code: ","'hello' 'hell' /sc"   
4FE3   CD 7A 0F               CALL   printStr   
4FE6   0D 0A 0D 0A 45 78 70 65 63 74 65 64 3A 20 00 .CSTR   "\r\n\r\nExpected: "   
4FF5   21 00 00               LD   hl,false   
4FF8   E5                     PUSH   hl   
4FF9   E5                     PUSH   hl   
4FFA   CD 77 10               CALL   run   
4FFD   2E 60 24 60 2E 68 00   .CSTR   ".`$`.h"   
5004   CD 7A 0F               CALL   printStr   
5007   0D 0A 0D 0A 41 63 74 75 61 6C 3A 20 00 .CSTR   "\r\n\r\nActual: "   
5014   E1                     POP   hl   
5015   E5                     PUSH   hl   
5016   E5                     PUSH   hl   
5017   CD 77 10               CALL   run   
501A   2E 60 24 60 2E 68 60 0D 0A 60 00 .CSTR   ".`$`.h`\r\n`"   
5025   76                     HALT      
5026                EXPECTM_3143S180:      
5026   E1                     POP   HL   
5027                          ;*Macro unroll:  test "'hello' 'hello' /sc", true
5027   31 00 53               LD   SP,STACK   
502A   CD AE 0F               CALL   coldInit   
502D   CD CC 51               CALL   execStr   
5030   27 68 65 6C 6C 6F 27 20 27 68 65 6C 6C 6F 27 20 2F 73 63 00 DB   "'hello' 'hello' /sc",0   
5044   E1                     POP   HL   
5045   E5                     PUSH   HL   
5046   11 FF FF               LD   DE,true   
5049   B7                     OR   A   
504A   ED 52                  SBC   HL,DE   
504C   7D                     LD   A,L   
504D   B4                     OR   H   
504E   CA B1 50               JP   Z,expectM_3144S181   
5051   CD 7A 0F               CALL   printStr   
5054   43 6F 64 65 3A 20 27 68 65 6C 6C 6F 27 20 27 68 65 6C 6C 6F 27 20 2F 73 63 00 .CSTR   "Code: ","'hello' 'hello' /sc"   
506E   CD 7A 0F               CALL   printStr   
5071   0D 0A 0D 0A 45 78 70 65 63 74 65 64 3A 20 00 .CSTR   "\r\n\r\nExpected: "   
5080   21 FF FF               LD   hl,true   
5083   E5                     PUSH   hl   
5084   E5                     PUSH   hl   
5085   CD 77 10               CALL   run   
5088   2E 60 24 60 2E 68 00   .CSTR   ".`$`.h"   
508F   CD 7A 0F               CALL   printStr   
5092   0D 0A 0D 0A 41 63 74 75 61 6C 3A 20 00 .CSTR   "\r\n\r\nActual: "   
509F   E1                     POP   hl   
50A0   E5                     PUSH   hl   
50A1   E5                     PUSH   hl   
50A2   CD 77 10               CALL   run   
50A5   2E 60 24 60 2E 68 60 0D 0A 60 00 .CSTR   ".`$`.h`\r\n`"   
50B0   76                     HALT      
50B1                EXPECTM_3144S181:      
50B1   E1                     POP   HL   
50B2                          ;*Macro unroll:  test "[1 2 3]** + +", 6
50B2   31 00 53               LD   SP,STACK   
50B5   CD AE 0F               CALL   coldInit   
50B8   CD CC 51               CALL   execStr   
50BB   5B 31 20 32 20 33 5D 2A 2A 20 2B 20 2B 00 DB   "[1 2 3]** + +",0   
50C9   E1                     POP   HL   
50CA   E5                     PUSH   HL   
50CB   11 06 00               LD   DE,6   
50CE   B7                     OR   A   
50CF   ED 52                  SBC   HL,DE   
50D1   7D                     LD   A,L   
50D2   B4                     OR   H   
50D3   CA 30 51               JP   Z,expectM_3145S182   
50D6   CD 7A 0F               CALL   printStr   
50D9   43 6F 64 65 3A 20 5B 31 20 32 20 33 5D 2A 2A 20 2B 20 2B 00 .CSTR   "Code: ","[1 2 3]** + +"   
50ED   CD 7A 0F               CALL   printStr   
50F0   0D 0A 0D 0A 45 78 70 65 63 74 65 64 3A 20 00 .CSTR   "\r\n\r\nExpected: "   
50FF   21 06 00               LD   hl,6   
5102   E5                     PUSH   hl   
5103   E5                     PUSH   hl   
5104   CD 77 10               CALL   run   
5107   2E 60 24 60 2E 68 00   .CSTR   ".`$`.h"   
510E   CD 7A 0F               CALL   printStr   
5111   0D 0A 0D 0A 41 63 74 75 61 6C 3A 20 00 .CSTR   "\r\n\r\nActual: "   
511E   E1                     POP   hl   
511F   E5                     PUSH   hl   
5120   E5                     PUSH   hl   
5121   CD 77 10               CALL   run   
5124   2E 60 24 60 2E 68 60 0D 0A 60 00 .CSTR   ".`$`.h`\r\n`"   
512F   76                     HALT      
5130                EXPECTM_3145S182:      
5130   E1                     POP   HL   
5131                          ;*Macro unroll:  test "/bm[_a [_b _c]** _d]2;", $63
5131   31 00 53               LD   SP,STACK   
5134   CD AE 0F               CALL   coldInit   
5137   CD CC 51               CALL   execStr   
513A   2F 62 6D 5B 5F 61 20 5B 5F 62 20 5F 63 5D 2A 2A 20 5F 64 5D 32 3B 00 DB   "/bm[_a [_b _c]** _d]2;",0   
5151   E1                     POP   HL   
5152   E5                     PUSH   HL   
5153   11 63 00               LD   DE,$63   
5156   B7                     OR   A   
5157   ED 52                  SBC   HL,DE   
5159   7D                     LD   A,L   
515A   B4                     OR   H   
515B   CA C1 51               JP   Z,expectM_3146S183   
515E   CD 7A 0F               CALL   printStr   
5161   43 6F 64 65 3A 20 2F 62 6D 5B 5F 61 20 5B 5F 62 20 5F 63 5D 2A 2A 20 5F 64 5D 32 3B 00 .CSTR   "Code: ","/bm[_a [_b _c]** _d]2;"   
517E   CD 7A 0F               CALL   printStr   
5181   0D 0A 0D 0A 45 78 70 65 63 74 65 64 3A 20 00 .CSTR   "\r\n\r\nExpected: "   
5190   21 63 00               LD   hl,$63   
5193   E5                     PUSH   hl   
5194   E5                     PUSH   hl   
5195   CD 77 10               CALL   run   
5198   2E 60 24 60 2E 68 00   .CSTR   ".`$`.h"   
519F   CD 7A 0F               CALL   printStr   
51A2   0D 0A 0D 0A 41 63 74 75 61 6C 3A 20 00 .CSTR   "\r\n\r\nActual: "   
51AF   E1                     POP   hl   
51B0   E5                     PUSH   hl   
51B1   E5                     PUSH   hl   
51B2   CD 77 10               CALL   run   
51B5   2E 60 24 60 2E 68 60 0D 0A 60 00 .CSTR   ".`$`.h`\r\n`"   
51C0   76                     HALT      
51C1                EXPECTM_3146S183:      
51C1   E1                     POP   HL   
51C2                             ; ; test "$1000 0 10 1 /rg \\a{%a 1 + 10 *} /mp \\a{%a.} /fe", $1000
51C2                             ; 
51C2   CD 7A 0F               CALL   printStr   
51C5   44 6F 6E 65 21 00      .CSTR   "Done!"   
51CB   76                     HALT      
51CC                             ; executes a null teminated string (null executes exit_)
51CC                             ; the string should be immedaitely following the call
51CC                EXECSTR:      ; create a root stack frame
51CC   C1                     POP   bc   ; bc = code*
51CD   0B                     DEC   bc   ; dec to prepare for next routine
51CE   11 00 00               LD   de,0   
51D1   D5                     PUSH   de   ; push fake IP
51D2   D5                     PUSH   de   ; push null arg_list*
51D3   D5                     PUSH   de   ; push null first_arg*
51D4   D5                     PUSH   de   ; push fake BP
51D5   DD E9                  JP   (ix)   
51D7                STKSIZE:   EQU   $100   ; Stack size
51D7                TIBSIZE:   EQU   $100   ; 256 bytes
51D7                BUFSIZE:   EQU   $100   ; 256 bytes, wraps
51D7                          ALIGN   $100   
5200                          DS   STKSIZE   
5300                STACK:       
5300                          ALIGN   $100   
5300                TIB:      DS   TIBSIZE   ; must be one page, lsb of vTIBPtr is length and wraps around
5400                          ALIGN   $100   
5400                BUFFER:   DS   BUFSIZE   ; must be one page, lsb of vBufPtr is length and wraps around
5500                          ALIGN   $100   
5500                VARS:        
5500                          DS   26 * 2 * 4   ; 52 vars, 3 bytes, RST LO HI CHAR
55D0                RESTARTS:      
55D0                RST08:    DS   2   
55D2                RST10:    DS   2   
55D4                RST18:    DS   2   
55D6                RST20:    DS   2   
55D8                RST28:    DS   2   
55DA                RST30:    DS   2   ; 
55DC                BAUD:     DS   2   ; 
55DE                INTVEC:   DS   2   ; 
55E0                NMIVEC:   DS   2   ; 
55E2                GETCVEC:   DS   2   ; 
55E4                PUTCVEC:   DS   2   ; 
55E6                SYSVARS:      
55E6                             ; initialised sys variables (preserved)
55E6                VTIBPTR:   DS   2   
55E8                VBUFPTR:   DS   2   
55EA                VHEAPPTR:   DS   2   
55EC                VRECURPTR:   DS   2   
55EE                VDATAWIDTH:   DS   1   
55EF                VNUMBASE:   DS   1   
55F0                VHEXPREFIX:   DS   1   
55F1                VECHO:    DS   1   
55F2                VSTRMODE:   DS   1   
55F3                          DS   1   
55F4                          DS   1   
55F5                          DS   1   
55F6                          DS   1   
55F7                          DS   1   
55F8                             ; uninitialised sys variables (preserved)
55F8                VPOINTER:   DS   2   ; 
55FA                VREMAIN:   DS   2   ; 
55FC                VSAVEDIP:   DS   2   ; 
55FE                VSAVEDSP:   DS   2   ; 
5600                VSAVEDNEXT:   DS   2   ; 
5602                VSAVEDBP:   DS   2   ; 
5604                             ; uninitialised sys variables (unpreserved)
5604                VTEMP1:   DS   2   ; 
5606                VTEMP2:   DS   2   ; 
5608                VTEMP3:   DS   2   ; 
560A                          DS   2   ; 
560C                TBPTR:    DS   2   ; reserved for tests
560E                TITLEBUF:   DS   20   
5622                HEAP:        
5622                             ; FUNC rangeSrc, 1, "besL"            ; range source: begin, end, step, local: L
5622                             ; db "{"
5622                             ; db    "[%b /t] %L="                 ; init mutable L [index active]
5622                             ; db    "\\kt{"
5622                             ; db      "0%t!=/qt"                  ; break if type != 0
5622                             ; db      "\\dt:a{"                   ; return talkback to receive data
5622                             ; db        "%L1;!/qt"                ; if not active don't send
5622                             ; db        "%L0; %a="                ; store current index in A
5622                             ; db        "%s %L0; +="              ; inc value of index by step
5622                             ; db        "1%t!=/qt"                ; break if type != 0
5622                             ; db        "%a %e <"                 ; ifte: in range?
5622                             ; db          "{%a 1}{/f %L1;= 0 2}"  ; ifte: /t index, /f active = false, quit
5622                             ; db          "? %k/rc"              ; ifte: send to sink note: /rc recur
5622                             ; db      "} 0 %k^"                   ; init sink
5622                             ; db    "}"
5622                             ; db "}"
5622                             ; db 0
5622                             ; FUNC map, 0, "sf"                   ; map
5622                             ; db "{"
5622                             ; db    "\\kt{"
5622                             ; db      "0%t!=/qt"                  ; break if type != 0
5622                             ; db      "\\dt{"                     ; call source with tb
5622                             ; db        "1%t=="                   ; ifte: type == 1 ?
5622                             ; db        "{%d %f^}{%d}"            ; ifte: func(data) or data
5622                             ; db        "? %t %k^"               ; ifte: send to sink
5622                             ; db      "} 0 %s^"
5622                             ; db    "}"
5622                             ; db "}"
5622                             ; db 0
5622                             ; ; /ft filter
5622                             ; ; src pred -- src1
5622                             ; FUNC filter, 1, "spT"               ; filter: source, predicate, local: T
5622                             ; db "{"
5622                             ; db    "[0]%T="
5622                             ; db    "\\kt{"                       ; return talkback to receive data
5622                             ; db      "\\dt{"                     ; call source with tb
5622                             ; db        "["
5622                             ; db          "{%d %T0;= /t}"         ; case 0: store talkback in T[0], return true
5622                             ; db          "{%d %p^}"              ; case 1: return boolean based on predicate
5622                             ; db          "{/t}"                  ; case 2: return true
5622                             ; db        "]%t;^"                   ; select on %t
5622                             ; db        "{%d %t %k^}{0 1 %T0;^}"  ; ifte: true send d to sink, false send 1 to talkback
5622                             ; db        "?"
5622                             ; db      "} 0 %s^"
5622                             ; db    "}"
5622                             ; db "}"
5622                             ; db 0
5622                             ; FUNC forEach, 1, "spT"
5622                             ; db "{"
5622                             ; db    "[0]%T="
5622                             ; db    "\\dt{"                       ; return talkback to receive data ; $56AA
5622                             ; db      "2%t==/qt"                    ; if type == 2 skip
5622                             ; db      "0%t=="                   ; ifte: type = 0 ?
5622                             ; db      "{%d %T0;=}{%d %p^}"      ; ifte: 0: store talkback, 1: send data
5622                             ; db      "?"                      ; ifte:
5622                             ; db      "0 1 %T0;^"               ; 0 or 1: get next src data item
5622                             ; db    "} 0 %s^"
5622                             ; db "}"
5622                             ; db 0
5622                             ; FUNC fold, 1, "sirA"                       ; src, init, reducer
5622                             ; db "{"                                  ; reducer: \\da00bbLi4u
5622                             ; db    "[%i]%A="
5622                             ; db    "\\kt{"                         ; return talkback to receive data
5622                             ; db      "\\dt{"                         ; call source with tb
5622                             ; db        "1%t=="                       ; ifte: type == 1 ?
5622                             ; db        "{ %d %A0; %r^ %A0;= %A0;}{%d}"      ; ifte: reduce -> acc, acc or data
5622                             ; db        "? %t %k^"                    ; ifte: send to sink
5622                             ; db      "} 0 %s^"
5622                             ; db    "}"
5622                             ; db "}"
5622                             ; db 0
5622                             ; 


TEC_1:              0001 DEFINED AT LINE 1 IN constants.asm
RC2014:             0000 DEFINED AT LINE 2 IN constants.asm
EXTENDED:           0000 DEFINED AT LINE 4 IN constants.asm
LOADER:             0000 DEFINED AT LINE 20 IN constants.asm
BITBANG:            0000 DEFINED AT LINE 21 IN constants.asm
ROMSTART:           0000 DEFINED AT LINE 23 IN constants.asm
                    > USED AT LINE 100 IN IOSerial.asm
                    > USED AT LINE 105 IN IOSerial.asm
                    > USED AT LINE 112 IN IOSerial.asm
                    > USED AT LINE 119 IN IOSerial.asm
                    > USED AT LINE 126 IN IOSerial.asm
                    > USED AT LINE 133 IN IOSerial.asm
                    > USED AT LINE 140 IN IOSerial.asm
                    > USED AT LINE 147 IN IOSerial.asm
                    > USED AT LINE 153 IN IOSerial.asm
                    > USED AT LINE 195 IN IOSerial.asm
                    > USED AT LINE 48 IN MAIN.asm
RAMSTART:           2000 DEFINED AT LINE 24 IN constants.asm
ROMSIZE:            2000 DEFINED AT LINE 25 IN constants.asm
RAMSIZE:            2000 DEFINED AT LINE 26 IN constants.asm
CONTROL:            0080 DEFINED AT LINE 22 IN IOSerial.asm
                    > USED AT LINE 471 IN IOSerial.asm
                    > USED AT LINE 493 IN IOSerial.asm
STATUS:             0080 DEFINED AT LINE 23 IN IOSerial.asm
                    > USED AT LINE 304 IN IOSerial.asm
                    > USED AT LINE 317 IN IOSerial.asm
TDR:                0081 DEFINED AT LINE 24 IN IOSerial.asm
                    > USED AT LINE 309 IN IOSerial.asm
RDR:                0081 DEFINED AT LINE 25 IN IOSerial.asm
                    > USED AT LINE 321 IN IOSerial.asm
MRESET:             0003 DEFINED AT LINE 32 IN IOSerial.asm
                    > USED AT LINE 470 IN IOSerial.asm
DIV_64:             0002 DEFINED AT LINE 35 IN IOSerial.asm
                    > USED AT LINE 492 IN IOSerial.asm
F7E2:               0000 DEFINED AT LINE 39 IN IOSerial.asm
F7O2:               0004 DEFINED AT LINE 40 IN IOSerial.asm
F7E1:               0008 DEFINED AT LINE 41 IN IOSerial.asm
F7O1:               000C DEFINED AT LINE 42 IN IOSerial.asm
F8N2:               0010 DEFINED AT LINE 43 IN IOSerial.asm
                    > USED AT LINE 492 IN IOSerial.asm
F8N1:               0014 DEFINED AT LINE 44 IN IOSerial.asm
F8E1:               0018 DEFINED AT LINE 45 IN IOSerial.asm
F8O1:               001C DEFINED AT LINE 46 IN IOSerial.asm
RTSLID:             0000 DEFINED AT LINE 50 IN IOSerial.asm
                    > USED AT LINE 492 IN IOSerial.asm
RTSLIE:             0020 DEFINED AT LINE 51 IN IOSerial.asm
RTSHID:             0040 DEFINED AT LINE 52 IN IOSerial.asm
RTSLIDB:            0060 DEFINED AT LINE 53 IN IOSerial.asm
RIE:                0080 DEFINED AT LINE 57 IN IOSerial.asm
RDRF:               0000 DEFINED AT LINE 61 IN IOSerial.asm
TDRE:               0001 DEFINED AT LINE 62 IN IOSerial.asm
DCD:                0002 DEFINED AT LINE 63 IN IOSerial.asm
CTS:                0003 DEFINED AT LINE 64 IN IOSerial.asm
FE:                 0004 DEFINED AT LINE 65 IN IOSerial.asm
OVRN:               0005 DEFINED AT LINE 66 IN IOSerial.asm
PE:                 0006 DEFINED AT LINE 67 IN IOSerial.asm
IRQ:                0007 DEFINED AT LINE 68 IN IOSerial.asm
KEYBUF:             0000 DEFINED AT LINE 76 IN IOSerial.asm
SCAN:               0001 DEFINED AT LINE 77 IN IOSerial.asm
DISPLY:             0002 DEFINED AT LINE 78 IN IOSerial.asm
PORT3:              0003 DEFINED AT LINE 79 IN IOSerial.asm
PORT4:              0004 DEFINED AT LINE 80 IN IOSerial.asm
PORT5:              0005 DEFINED AT LINE 81 IN IOSerial.asm
PORT6:              0006 DEFINED AT LINE 82 IN IOSerial.asm
PORT7:              0007 DEFINED AT LINE 83 IN IOSerial.asm
ESC:                001B DEFINED AT LINE 27 IN MAIN.asm
                    > USED AT LINE 174 IN MAIN.asm
CR:                 000D DEFINED AT LINE 97 IN IOSerial.asm
LF:                 000A DEFINED AT LINE 98 IN IOSerial.asm
RSTVEC:             0000 DEFINED AT LINE 102 IN IOSerial.asm
SEVENSEGMENT:       0040 DEFINED AT LINE 158 IN IOSerial.asm
PWRUP:              0050 DEFINED AT LINE 180 IN IOSerial.asm
                    > USED AT LINE 476 IN IOSerial.asm
BITIME:             0053 DEFINED AT LINE 182 IN IOSerial.asm
BITIM1:             0058 DEFINED AT LINE 186 IN IOSerial.asm
                    > USED AT LINE 188 IN IOSerial.asm
INTRET:             005F DEFINED AT LINE 191 IN IOSerial.asm
                    > USED AT LINE 452 IN IOSerial.asm
TXDATA:             006B DEFINED AT LINE 299 IN IOSerial.asm
                    > USED AT LINE 464 IN IOSerial.asm
TXCHAR:             006B DEFINED AT LINE 300 IN IOSerial.asm
TXCHAR1:            006D DEFINED AT LINE 303 IN IOSerial.asm
                    > USED AT LINE 307 IN IOSerial.asm
RXDATA:             0078 DEFINED AT LINE 315 IN IOSerial.asm
                    > USED AT LINE 462 IN IOSerial.asm
RXCHAR:             0078 DEFINED AT LINE 316 IN IOSerial.asm
                    > USED AT LINE 320 IN IOSerial.asm
GETCHAR:            0081 DEFINED AT LINE 440 IN IOSerial.asm
                    > USED AT LINE 1422 IN MAIN.asm
                    > USED AT LINE 1432 IN MAIN.asm
                    > USED AT LINE 2500 IN MAIN.asm
PUTCHAR:            0085 DEFINED AT LINE 444 IN IOSerial.asm
                    > USED AT LINE 1440 IN MAIN.asm
                    > USED AT LINE 2341 IN MAIN.asm
                    > USED AT LINE 2522 IN MAIN.asm
                    > USED AT LINE 2606 IN MAIN.asm
RESET:              008B DEFINED AT LINE 450 IN IOSerial.asm
                    > USED AT LINE 103 IN IOSerial.asm
TRUE:               00-1 DEFINED AT LINE 16 IN MAIN.asm
                    > USED AT LINE 161 IN MAIN.asm
                    > USED AT LINE 1148 IN MAIN.asm
                    > USED AT LINE 1215 IN MAIN.asm
                    > USED AT LINE 1849 IN MAIN.asm
                    > USED AT LINE 11
                    > USED AT LINE 23
                    > USED AT LINE 11
                    > USED AT LINE 23
                    > USED AT LINE 11
                    > USED AT LINE 23
                    > USED AT LINE 11
                    > USED AT LINE 23
                    > USED AT LINE 11
                    > USED AT LINE 23
                    > USED AT LINE 11
                    > USED AT LINE 23
                    > USED AT LINE 11
                    > USED AT LINE 23
                    > USED AT LINE 11
                    > USED AT LINE 23
                    > USED AT LINE 11
                    > USED AT LINE 23
                    > USED AT LINE 11
                    > USED AT LINE 23
                    > USED AT LINE 11
                    > USED AT LINE 23
FALSE:              0000 DEFINED AT LINE 17 IN MAIN.asm
                    > USED AT LINE 162 IN MAIN.asm
                    > USED AT LINE 1153 IN MAIN.asm
                    > USED AT LINE 1212 IN MAIN.asm
                    > USED AT LINE 1854 IN MAIN.asm
                    > USED AT LINE 11
                    > USED AT LINE 23
                    > USED AT LINE 11
                    > USED AT LINE 23
                    > USED AT LINE 11
                    > USED AT LINE 23
                    > USED AT LINE 11
                    > USED AT LINE 23
                    > USED AT LINE 11
                    > USED AT LINE 23
                    > USED AT LINE 11
                    > USED AT LINE 23
                    > USED AT LINE 11
                    > USED AT LINE 23
                    > USED AT LINE 11
                    > USED AT LINE 23
                    > USED AT LINE 11
                    > USED AT LINE 23
NUL:                0000 DEFINED AT LINE 18 IN MAIN.asm
                    > USED AT LINE 157 IN MAIN.asm
                    > USED AT LINE 611 IN MAIN.asm
                    > USED AT LINE 821 IN MAIN.asm
                    > USED AT LINE 831 IN MAIN.asm
                    > USED AT LINE 837 IN MAIN.asm
                    > USED AT LINE 857 IN MAIN.asm
                    > USED AT LINE 863 IN MAIN.asm
                    > USED AT LINE 870 IN MAIN.asm
                    > USED AT LINE 876 IN MAIN.asm
                    > USED AT LINE 880 IN MAIN.asm
                    > USED AT LINE 884 IN MAIN.asm
                    > USED AT LINE 891 IN MAIN.asm
                    > USED AT LINE 901 IN MAIN.asm
                    > USED AT LINE 917 IN MAIN.asm
                    > USED AT LINE 921 IN MAIN.asm
                    > USED AT LINE 941 IN MAIN.asm
                    > USED AT LINE 947 IN MAIN.asm
                    > USED AT LINE 951 IN MAIN.asm
                    > USED AT LINE 956 IN MAIN.asm
                    > USED AT LINE 961 IN MAIN.asm
                    > USED AT LINE 34
                    > USED AT LINE 34
                    > USED AT LINE 34
                    > USED AT LINE 34
                    > USED AT LINE 34
                    > USED AT LINE 34
                    > USED AT LINE 34
                    > USED AT LINE 34
                    > USED AT LINE 34
                    > USED AT LINE 1414 IN MAIN.asm
                    > USED AT LINE 1416 IN MAIN.asm
                    > USED AT LINE 1418 IN MAIN.asm
                    > USED AT LINE 2503 IN MAIN.asm
                    > USED AT LINE 2571 IN MAIN.asm
                    > USED AT LINE 34
                    > USED AT LINE 34
                    > USED AT LINE 34
                    > USED AT LINE 34
                    > USED AT LINE 11
                    > USED AT LINE 23
                    > USED AT LINE 11
                    > USED AT LINE 23
                    > USED AT LINE 11
                    > USED AT LINE 23
                    > USED AT LINE 11
                    > USED AT LINE 23
DQ:                 0022 DEFINED AT LINE 19 IN MAIN.asm
                    > USED AT LINE 2051 IN MAIN.asm
                    > USED AT LINE 2360 IN MAIN.asm
CTRL_C:             0003 DEFINED AT LINE 20 IN MAIN.asm
CTRL_E:             0005 DEFINED AT LINE 21 IN MAIN.asm
CTRL_H:             0008 DEFINED AT LINE 22 IN MAIN.asm
                    > USED AT LINE 2508 IN MAIN.asm
CTRL_J:             000A DEFINED AT LINE 23 IN MAIN.asm
                    > USED AT LINE 2510 IN MAIN.asm
CTRL_L:             000C DEFINED AT LINE 24 IN MAIN.asm
CTRL_P:             0010 DEFINED AT LINE 25 IN MAIN.asm
CTRL_S:             0013 DEFINED AT LINE 26 IN MAIN.asm
OPCODES:            0180 DEFINED AT LINE 52 IN MAIN.asm
ISYSVARS:           01DE DEFINED AT LINE 153 IN MAIN.asm
                    > USED AT LINE 2441 IN MAIN.asm
TITLESTR:           01F0 DEFINED AT LINE 173 IN MAIN.asm
                    > USED AT LINE 2416 IN MAIN.asm
                    > USED AT LINE 2435 IN MAIN.asm
COLON_:             0204 DEFINED AT LINE 178 IN MAIN.asm
COMMA_:             0206 DEFINED AT LINE 181 IN MAIN.asm
DOLLAR_:            0209 DEFINED AT LINE 184 IN MAIN.asm
DQUOTE_:            020C DEFINED AT LINE 187 IN MAIN.asm
QUOTE_:             020C DEFINED AT LINE 188 IN MAIN.asm
DOT_:               020F DEFINED AT LINE 191 IN MAIN.asm
PERCENT_:           0212 DEFINED AT LINE 194 IN MAIN.asm
QUESTION_:          0215 DEFINED AT LINE 197 IN MAIN.asm
LPAREN_:            0218 DEFINED AT LINE 200 IN MAIN.asm
SLASH_:             021B DEFINED AT LINE 203 IN MAIN.asm
NUM_:               021E DEFINED AT LINE 206 IN MAIN.asm
BANG_:              0221 DEFINED AT LINE 209 IN MAIN.asm
BANG:               0221 DEFINED AT LINE 210 IN MAIN.asm
NOT:                022C DEFINED AT LINE 218 IN MAIN.asm
                    > USED AT LINE 214 IN MAIN.asm
EQ_:                0232 DEFINED AT LINE 222 IN MAIN.asm
EQ:                 0232 DEFINED AT LINE 223 IN MAIN.asm
EQ0:                023C DEFINED AT LINE 230 IN MAIN.asm
                    > USED AT LINE 227 IN MAIN.asm
EQ1:                023D DEFINED AT LINE 232 IN MAIN.asm
                    > USED AT LINE 221 IN MAIN.asm
GT_:                0241 DEFINED AT LINE 236 IN MAIN.asm
GT:                 0241 DEFINED AT LINE 237 IN MAIN.asm
LT_:                024C DEFINED AT LINE 245 IN MAIN.asm
LT:                 024C DEFINED AT LINE 246 IN MAIN.asm
LT1:                0255 DEFINED AT LINE 253 IN MAIN.asm
                    > USED AT LINE 244 IN MAIN.asm
HASH_:              025E DEFINED AT LINE 261 IN MAIN.asm
SEMICOLON_:         025E DEFINED AT LINE 262 IN MAIN.asm
SEMICOLON:          025E DEFINED AT LINE 263 IN MAIN.asm
ARRAYINDEX:         025E DEFINED AT LINE 264 IN MAIN.asm
ARRAYINDEX0:        0266 DEFINED AT LINE 270 IN MAIN.asm
ARRAYINDEX1:        0267 DEFINED AT LINE 272 IN MAIN.asm
                    > USED AT LINE 269 IN MAIN.asm
RPAREN_:            026B DEFINED AT LINE 277 IN MAIN.asm
RPAREN:             026B DEFINED AT LINE 279 IN MAIN.asm
AMPER_:             0273 DEFINED AT LINE 287 IN MAIN.asm
AMPER:              0273 DEFINED AT LINE 288 IN MAIN.asm
AND:                0273 DEFINED AT LINE 289 IN MAIN.asm
MINUS_:             027D DEFINED AT LINE 307 IN MAIN.asm
MINUS:              027D DEFINED AT LINE 308 IN MAIN.asm
SUB:                0289 DEFINED AT LINE 316 IN MAIN.asm
                    > USED AT LINE 313 IN MAIN.asm
SUB1:               0293 DEFINED AT LINE 323 IN MAIN.asm
                    > USED AT LINE 320 IN MAIN.asm
SUB2:               029A DEFINED AT LINE 329 IN MAIN.asm
                    > USED AT LINE 326 IN MAIN.asm
SUB3:               029D DEFINED AT LINE 332 IN MAIN.asm
                    > USED AT LINE 988 IN MAIN.asm
                    > USED AT LINE 1909 IN MAIN.asm
                    > USED AT LINE 1934 IN MAIN.asm
STAR_:              02A5 DEFINED AT LINE 338 IN MAIN.asm
STAR:               02A5 DEFINED AT LINE 339 IN MAIN.asm
MUL:                02AD DEFINED AT LINE 345 IN MAIN.asm
MUL2:               02AF DEFINED AT LINE 348 IN MAIN.asm
MUL3:               02B7 DEFINED AT LINE 353 IN MAIN.asm
                    > USED AT LINE 362 IN MAIN.asm
PLUS_:              02C9 DEFINED AT LINE 368 IN MAIN.asm
PLUS:               02C9 DEFINED AT LINE 369 IN MAIN.asm
ADD:                02C9 DEFINED AT LINE 370 IN MAIN.asm
ADD1:               02D4 DEFINED AT LINE 378 IN MAIN.asm
                    > USED AT LINE 374 IN MAIN.asm
ADD3:               02D8 DEFINED AT LINE 383 IN MAIN.asm
                    > USED AT LINE 298 IN MAIN.asm
                    > USED AT LINE 364 IN MAIN.asm
                    > USED AT LINE 571 IN MAIN.asm
                    > USED AT LINE 1256 IN MAIN.asm
                    > USED AT LINE 1490 IN MAIN.asm
ADD4:               02E2 DEFINED AT LINE 391 IN MAIN.asm
                    > USED AT LINE 387 IN MAIN.asm
UPCASE_:            02E5 DEFINED AT LINE 395 IN MAIN.asm
UPCASE:             02E5 DEFINED AT LINE 396 IN MAIN.asm
LOWCASE_:           0300 DEFINED AT LINE 405 IN MAIN.asm
LOWCASE:            0300 DEFINED AT LINE 406 IN MAIN.asm
IDENT1:             0305 DEFINED AT LINE 410 IN MAIN.asm
                    > USED AT LINE 399 IN MAIN.asm
LBRACK_:            0312 DEFINED AT LINE 422 IN MAIN.asm
LBRACK:             0312 DEFINED AT LINE 423 IN MAIN.asm
ARRAYSTART:         0312 DEFINED AT LINE 424 IN MAIN.asm
BACKSLASH_:         032E DEFINED AT LINE 439 IN MAIN.asm
BACKSLASH:          032E DEFINED AT LINE 440 IN MAIN.asm
LAMBDA:             032E DEFINED AT LINE 441 IN MAIN.asm
LAMBDA1:            0333 DEFINED AT LINE 444 IN MAIN.asm
                    > USED AT LINE 448 IN MAIN.asm
LAMBDA2:            0343 DEFINED AT LINE 453 IN MAIN.asm
                    > USED AT LINE 450 IN MAIN.asm
RBRACK_:            034F DEFINED AT LINE 461 IN MAIN.asm
RBRACK:             034F DEFINED AT LINE 462 IN MAIN.asm
ARRAYEND:           034F DEFINED AT LINE 463 IN MAIN.asm
ARRAYEND1:          036B DEFINED AT LINE 480 IN MAIN.asm
                    > USED AT LINE 497 IN MAIN.asm
ARRAYEND2:          037B DEFINED AT LINE 490 IN MAIN.asm
                    > USED AT LINE 486 IN MAIN.asm
ARRAYEND3:          0380 DEFINED AT LINE 494 IN MAIN.asm
                    > USED AT LINE 479 IN MAIN.asm
CARET_:             039F DEFINED AT LINE 515 IN MAIN.asm
CARET:              039F DEFINED AT LINE 519 IN MAIN.asm
GO:                 039F DEFINED AT LINE 520 IN MAIN.asm
                    > USED AT LINE 33
                    > USED AT LINE 33
                    > USED AT LINE 33
                    > USED AT LINE 33
                    > USED AT LINE 33
                    > USED AT LINE 33
                    > USED AT LINE 33
                    > USED AT LINE 33
                    > USED AT LINE 33
                    > USED AT LINE 33
                    > USED AT LINE 33
                    > USED AT LINE 33
                    > USED AT LINE 33
GO1:                03A0 DEFINED AT LINE 522 IN MAIN.asm
                    > USED AT LINE 1525 IN MAIN.asm
                    > USED AT LINE 1527 IN MAIN.asm
                    > USED AT LINE 1697 IN MAIN.asm
GO2:                03A6 DEFINED AT LINE 527 IN MAIN.asm
                    > USED AT LINE 525 IN MAIN.asm
GRAVE_:             03B5 DEFINED AT LINE 536 IN MAIN.asm
GRAVE:              03B5 DEFINED AT LINE 537 IN MAIN.asm
PRINTLITERAL:       03B5 DEFINED AT LINE 538 IN MAIN.asm
PRINTLITERAL0:      03BC DEFINED AT LINE 542 IN MAIN.asm
                    > USED AT LINE 549 IN MAIN.asm
PRINTLITERAL1:      03BF DEFINED AT LINE 546 IN MAIN.asm
                    > USED AT LINE 541 IN MAIN.asm
LBRACE_:            03CB DEFINED AT LINE 553 IN MAIN.asm
LBRACE:             03CB DEFINED AT LINE 554 IN MAIN.asm
                    > USED AT LINE 201 IN MAIN.asm
PIPE_:              03D0 DEFINED AT LINE 560 IN MAIN.asm
PIPE:               03D0 DEFINED AT LINE 561 IN MAIN.asm
OR:                 03D0 DEFINED AT LINE 562 IN MAIN.asm
RBRACE_:            03DB DEFINED AT LINE 573 IN MAIN.asm
TILDE_:             03DE DEFINED AT LINE 577 IN MAIN.asm
UNDERSCORE_:        03E1 DEFINED AT LINE 580 IN MAIN.asm
CHAR:               03E1 DEFINED AT LINE 581 IN MAIN.asm
AT_:                03E9 DEFINED AT LINE 589 IN MAIN.asm
AT:                 03E9 DEFINED AT LINE 590 IN MAIN.asm
ADDR:               03E9 DEFINED AT LINE 591 IN MAIN.asm
DOT:                0400 DEFINED AT LINE 602 IN MAIN.asm
                    > USED AT LINE 192 IN MAIN.asm
PRINT:              0400 DEFINED AT LINE 603 IN MAIN.asm
PRINTCHAR:          040F DEFINED AT LINE 616 IN MAIN.asm
                    > USED AT LINE 608 IN MAIN.asm
PRINTSTRING:        041E DEFINED AT LINE 627 IN MAIN.asm
                    > USED AT LINE 610 IN MAIN.asm
PRINTSTRING0:       0425 DEFINED AT LINE 631 IN MAIN.asm
                    > USED AT LINE 638 IN MAIN.asm
PRINTSTRING1:       0428 DEFINED AT LINE 635 IN MAIN.asm
                    > USED AT LINE 630 IN MAIN.asm
PRINTNUMBER:        0433 DEFINED AT LINE 644 IN MAIN.asm
                    > USED AT LINE 612 IN MAIN.asm
PRINTDEC:           043E DEFINED AT LINE 652 IN MAIN.asm
                    > USED AT LINE 648 IN MAIN.asm
PRINTDEC1:          044C DEFINED AT LINE 660 IN MAIN.asm
                    > USED AT LINE 658 IN MAIN.asm
PRINTDEC2:          045B DEFINED AT LINE 672 IN MAIN.asm
                    > USED AT LINE 661 IN MAIN.asm
PRINTDEC3:          046B DEFINED AT LINE 686 IN MAIN.asm
                    > USED AT LINE 674 IN MAIN.asm
PRINTDEC4:          048B DEFINED AT LINE 700 IN MAIN.asm
                    > USED AT LINE 689 IN MAIN.asm
                    > USED AT LINE 691 IN MAIN.asm
                    > USED AT LINE 693 IN MAIN.asm
                    > USED AT LINE 695 IN MAIN.asm
                    > USED AT LINE 698 IN MAIN.asm
PRINTDEC5:          048D DEFINED AT LINE 702 IN MAIN.asm
                    > USED AT LINE 705 IN MAIN.asm
PRINTDEC6:          049D DEFINED AT LINE 714 IN MAIN.asm
                    > USED AT LINE 709 IN MAIN.asm
PRINTDEC7:          049E DEFINED AT LINE 716 IN MAIN.asm
                    > USED AT LINE 713 IN MAIN.asm
PRINTHEX:           04A4 DEFINED AT LINE 727 IN MAIN.asm
                    > USED AT LINE 647 IN MAIN.asm
PRINTHEX1:          04B0 DEFINED AT LINE 734 IN MAIN.asm
                    > USED AT LINE 731 IN MAIN.asm
PRINTHEX2:          04BB DEFINED AT LINE 741 IN MAIN.asm
                    > USED AT LINE 738 IN MAIN.asm
PRINTHEX3:          04CA DEFINED AT LINE 750 IN MAIN.asm
                    > USED AT LINE 740 IN MAIN.asm
                    > USED AT LINE 743 IN MAIN.asm
PRINTHEX4:          04D3 DEFINED AT LINE 758 IN MAIN.asm
                    > USED AT LINE 756 IN MAIN.asm
SLASH:              0500 DEFINED AT LINE 773 IN MAIN.asm
                    > USED AT LINE 204 IN MAIN.asm
COMMAND:            0500 DEFINED AT LINE 774 IN MAIN.asm
COMMAND_A_:         0526 DEFINED AT LINE 810 IN MAIN.asm
COMMAND_B_:         0538 DEFINED AT LINE 824 IN MAIN.asm
COMMAND_D_:         0544 DEFINED AT LINE 834 IN MAIN.asm
COMMAND_F_:         054A DEFINED AT LINE 840 IN MAIN.asm
COMMAND_H_:         0565 DEFINED AT LINE 860 IN MAIN.asm
COMMAND_I_:         056B DEFINED AT LINE 867 IN MAIN.asm
COMMAND_M_:         0571 DEFINED AT LINE 873 IN MAIN.asm
OUTPUT_:            0577 DEFINED AT LINE 879 IN MAIN.asm
COMMAND_P_:         057A DEFINED AT LINE 883 IN MAIN.asm
COMMAND_Q_:         057D DEFINED AT LINE 888 IN MAIN.asm
COMMAND_R_:         0583 DEFINED AT LINE 894 IN MAIN.asm
COMMAND_S_:         058F DEFINED AT LINE 904 IN MAIN.asm
TRUE_:              05A4 DEFINED AT LINE 920 IN MAIN.asm
COMMAND_V_:         05A7 DEFINED AT LINE 924 IN MAIN.asm
COMMAND_W_:         05C2 DEFINED AT LINE 944 IN MAIN.asm
XOR_:               05C8 DEFINED AT LINE 950 IN MAIN.asm
COMMAND_NOP_:       05CB DEFINED AT LINE 955 IN MAIN.asm
COMMAND_DEFAULT_:   05CE DEFINED AT LINE 960 IN MAIN.asm
NOP:                05D1 DEFINED AT LINE 966 IN MAIN.asm
                    > USED AT LINE 957 IN MAIN.asm
DIV:                05D3 DEFINED AT LINE 970 IN MAIN.asm
                    > USED AT LINE 962 IN MAIN.asm
DIV2:               05DD DEFINED AT LINE 979 IN MAIN.asm
                    > USED AT LINE 976 IN MAIN.asm
ABSOLUTE:           05EE DEFINED AT LINE 992 IN MAIN.asm
                    > USED AT LINE 812 IN MAIN.asm
ABSOLUTE1:          05F9 DEFINED AT LINE 1002 IN MAIN.asm
                    > USED AT LINE 995 IN MAIN.asm
ADDROF:             05FC DEFINED AT LINE 1008 IN MAIN.asm
                    > USED AT LINE 814 IN MAIN.asm
ADDROF2:            0602 DEFINED AT LINE 1013 IN MAIN.asm
ARRAYLENGTH:        0604 DEFINED AT LINE 1018 IN MAIN.asm
                    > USED AT LINE 818 IN MAIN.asm
                    > USED AT LINE 44
ARRAYLENGTH1:       060A DEFINED AT LINE 1025 IN MAIN.asm
                    > USED AT LINE 1036 IN MAIN.asm
                    > USED AT LINE 1039 IN MAIN.asm
ARRAYSIZE:          060D DEFINED AT LINE 1031 IN MAIN.asm
                    > USED AT LINE 820 IN MAIN.asm
PERFORMM_1515S1032: 0614 DEFINED AT LINE 45
                    > USED AT LINE 43
BREAK:              0621 DEFINED AT LINE 1044 IN MAIN.asm
                    > USED AT LINE 830 IN MAIN.asm
BREAK1:             0628 DEFINED AT LINE 1050 IN MAIN.asm
                    > USED AT LINE 1048 IN MAIN.asm
BYTEMODE:           063B DEFINED AT LINE 1062 IN MAIN.asm
                    > USED AT LINE 828 IN MAIN.asm
BYTEMODE1:          063D DEFINED AT LINE 1064 IN MAIN.asm
                    > USED AT LINE 1243 IN MAIN.asm
COMMENT:            0642 DEFINED AT LINE 1069 IN MAIN.asm
                    > USED AT LINE 778 IN MAIN.asm
                    > USED AT LINE 1073 IN MAIN.asm
CONSTHEAPSTART:     064B DEFINED AT LINE 1077 IN MAIN.asm
                    > USED AT LINE 938 IN MAIN.asm
CONSTTIBSTART:      0651 DEFINED AT LINE 1081 IN MAIN.asm
                    > USED AT LINE 940 IN MAIN.asm
CONSTBUFSTART:      0657 DEFINED AT LINE 1085 IN MAIN.asm
                    > USED AT LINE 936 IN MAIN.asm
DECBASE:            065D DEFINED AT LINE 1089 IN MAIN.asm
                    > USED AT LINE 836 IN MAIN.asm
DECBASE1:           065F DEFINED AT LINE 1091 IN MAIN.asm
                    > USED AT LINE 1097 IN MAIN.asm
HEXBASE:            0664 DEFINED AT LINE 1095 IN MAIN.asm
                    > USED AT LINE 862 IN MAIN.asm
ERROR1:             0669 DEFINED AT LINE 1099 IN MAIN.asm
                    > USED AT LINE 822 IN MAIN.asm
                    > USED AT LINE 832 IN MAIN.asm
                    > USED AT LINE 838 IN MAIN.asm
                    > USED AT LINE 864 IN MAIN.asm
                    > USED AT LINE 871 IN MAIN.asm
                    > USED AT LINE 877 IN MAIN.asm
                    > USED AT LINE 885 IN MAIN.asm
                    > USED AT LINE 892 IN MAIN.asm
                    > USED AT LINE 902 IN MAIN.asm
                    > USED AT LINE 918 IN MAIN.asm
                    > USED AT LINE 942 IN MAIN.asm
                    > USED AT LINE 948 IN MAIN.asm
INPUT:              066F DEFINED AT LINE 1105 IN MAIN.asm
                    > USED AT LINE 869 IN MAIN.asm
OUTPUT:             067A DEFINED AT LINE 1117 IN MAIN.asm
                    > USED AT LINE 881 IN MAIN.asm
QUIT:               0683 DEFINED AT LINE 1128 IN MAIN.asm
                    > USED AT LINE 890 IN MAIN.asm
QUIT1:              068A DEFINED AT LINE 1134 IN MAIN.asm
                    > USED AT LINE 1132 IN MAIN.asm
RECUR:              068D DEFINED AT LINE 1137 IN MAIN.asm
                    > USED AT LINE 896 IN MAIN.asm
REMAIN:             0693 DEFINED AT LINE 1142 IN MAIN.asm
                    > USED AT LINE 898 IN MAIN.asm
STRINGBEGIN:        0699 DEFINED AT LINE 1147 IN MAIN.asm
                    > USED AT LINE 906 IN MAIN.asm
STRINGEND:          06A1 DEFINED AT LINE 1152 IN MAIN.asm
                    > USED AT LINE 910 IN MAIN.asm
STRINGEND1:         06C8 DEFINED AT LINE 1170 IN MAIN.asm
                    > USED AT LINE 1150 IN MAIN.asm
STRINGLENGTH:       06D0 DEFINED AT LINE 1175 IN MAIN.asm
                    > USED AT LINE 914 IN MAIN.asm
                    > USED AT LINE 44
STRINGLENGTH1:      06D6 DEFINED AT LINE 1179 IN MAIN.asm
                    > USED AT LINE 1185 IN MAIN.asm
STRINGLENGTH2:      06D8 DEFINED AT LINE 1182 IN MAIN.asm
                    > USED AT LINE 1178 IN MAIN.asm
STRINGLENGTH3:      06DC DEFINED AT LINE 1186 IN MAIN.asm
                    > USED AT LINE 1194 IN MAIN.asm
STRINGSIZE:         06DF DEFINED AT LINE 1190 IN MAIN.asm
                    > USED AT LINE 916 IN MAIN.asm
PERFORMM_1656S1191: 06E6 DEFINED AT LINE 45
                    > USED AT LINE 43
STRINGCOMPARE:      06EB DEFINED AT LINE 1199 IN MAIN.asm
                    > USED AT LINE 908 IN MAIN.asm
STRINGCOMPARE1:     06ED DEFINED AT LINE 1202 IN MAIN.asm
                    > USED AT LINE 1210 IN MAIN.asm
STRINGCOMPARE2:     06F8 DEFINED AT LINE 1211 IN MAIN.asm
                    > USED AT LINE 1205 IN MAIN.asm
STRINGCOMPARE3:     06FD DEFINED AT LINE 1214 IN MAIN.asm
                    > USED AT LINE 1207 IN MAIN.asm
STRINGCOMPARE4:     0700 DEFINED AT LINE 1216 IN MAIN.asm
                    > USED AT LINE 1213 IN MAIN.asm
VARBUFPTR:          0703 DEFINED AT LINE 1220 IN MAIN.asm
                    > USED AT LINE 926 IN MAIN.asm
VARECHO:            0709 DEFINED AT LINE 1224 IN MAIN.asm
                    > USED AT LINE 928 IN MAIN.asm
VARHEAPPTR:         070F DEFINED AT LINE 1228 IN MAIN.asm
                    > USED AT LINE 930 IN MAIN.asm
VARTIBPTR:          0715 DEFINED AT LINE 1232 IN MAIN.asm
                    > USED AT LINE 932 IN MAIN.asm
VARHEXPREFIX:       071B DEFINED AT LINE 1236 IN MAIN.asm
                    > USED AT LINE 934 IN MAIN.asm
WORDMODE:           0721 DEFINED AT LINE 1241 IN MAIN.asm
                    > USED AT LINE 946 IN MAIN.asm
XOR:                0726 DEFINED AT LINE 1246 IN MAIN.asm
                    > USED AT LINE 952 IN MAIN.asm
XOR1:               0727 DEFINED AT LINE 1248 IN MAIN.asm
RANGESRC:           0731 DEFINED AT LINE 32
                    > USED AT LINE 900 IN MAIN.asm
RANGESRCM_1719S1264: 0740 DEFINED AT LINE 39
                    > USED AT LINE 35
ARRAYITER:          07C3 DEFINED AT LINE 32
                    > USED AT LINE 816 IN MAIN.asm
ARRAYITERM_1738S1284: 07D0 DEFINED AT LINE 39
                    > USED AT LINE 35
STRINGITER:         0843 DEFINED AT LINE 32
                    > USED AT LINE 912 IN MAIN.asm
STRINGITERM_1757S1304: 0850 DEFINED AT LINE 39
                    > USED AT LINE 35
MAP:                08CA DEFINED AT LINE 32
                    > USED AT LINE 875 IN MAIN.asm
MAPM_1777S1326:     08D7 DEFINED AT LINE 39
                    > USED AT LINE 35
FILTER:             090B DEFINED AT LINE 32
                    > USED AT LINE 848 IN MAIN.asm
FILTERM_1791S1341:  0919 DEFINED AT LINE 39
                    > USED AT LINE 35
FOLD:               0968 DEFINED AT LINE 32
                    > USED AT LINE 842 IN MAIN.asm
FOLDM_1810S1361:    0977 DEFINED AT LINE 39
                    > USED AT LINE 35
FOREACH:            09B9 DEFINED AT LINE 32
                    > USED AT LINE 844 IN MAIN.asm
FOREACHM_1824S1376: 09C7 DEFINED AT LINE 39
                    > USED AT LINE 35
FUNCSRC:            0A04 DEFINED AT LINE 32
                    > USED AT LINE 846 IN MAIN.asm
FUNCSRCM_1838S1391: 0A10 DEFINED AT LINE 39
                    > USED AT LINE 35
PRINTARRAY:         0A3D DEFINED AT LINE 32
                    > USED AT LINE 606 IN MAIN.asm
PRINTARRAYM_1848S1402: 0A4B DEFINED AT LINE 39
                    > USED AT LINE 35
COMMA:              0A85 DEFINED AT LINE 1412 IN MAIN.asm
                    > USED AT LINE 182 IN MAIN.asm
READCHAR:           0A94 DEFINED AT LINE 1421 IN MAIN.asm
                    > USED AT LINE 1415 IN MAIN.asm
READSTRING:         0A9D DEFINED AT LINE 1428 IN MAIN.asm
                    > USED AT LINE 1417 IN MAIN.asm
                    > USED AT LINE 44
READSTRING1:        0AA2 DEFINED AT LINE 1431 IN MAIN.asm
                    > USED AT LINE 1439 IN MAIN.asm
                    > USED AT LINE 1441 IN MAIN.asm
READSTRING2:        0AB6 DEFINED AT LINE 1442 IN MAIN.asm
                    > USED AT LINE 1434 IN MAIN.asm
READNUMBER:         0ABF DEFINED AT LINE 1449 IN MAIN.asm
                    > USED AT LINE 1419 IN MAIN.asm
PERFORMM_1892S1451: 0AC8 DEFINED AT LINE 45
                    > USED AT LINE 43
READNUMBER1:        0AE6 DEFINED AT LINE 1467 IN MAIN.asm
                    > USED AT LINE 1458 IN MAIN.asm
                    > USED AT LINE 1462 IN MAIN.asm
                    > USED AT LINE 1464 IN MAIN.asm
PERFORMM_1909S1468: 0AED DEFINED AT LINE 45
                    > USED AT LINE 43
READNUMBER2:        0AF0 DEFINED AT LINE 1471 IN MAIN.asm
                    > USED AT LINE 1460 IN MAIN.asm
PERFORMM_1913S1472: 0AF7 DEFINED AT LINE 45
                    > USED AT LINE 43
READNUMBER3:        0AF8 DEFINED AT LINE 1474 IN MAIN.asm
                    > USED AT LINE 1466 IN MAIN.asm
                    > USED AT LINE 1470 IN MAIN.asm
TILDE:              0AFE DEFINED AT LINE 1481 IN MAIN.asm
                    > USED AT LINE 578 IN MAIN.asm
INVERT:             0AFE DEFINED AT LINE 1482 IN MAIN.asm
DOLLAR:             0B08 DEFINED AT LINE 1493 IN MAIN.asm
                    > USED AT LINE 185 IN MAIN.asm
HEXNUM:             0B08 DEFINED AT LINE 1494 IN MAIN.asm
                    > USED AT LINE 44
HEXNUM1:            0B0B DEFINED AT LINE 1496 IN MAIN.asm
                    > USED AT LINE 1513 IN MAIN.asm
HEXNUM2:            0B13 DEFINED AT LINE 1502 IN MAIN.asm
                    > USED AT LINE 1500 IN MAIN.asm
QUESTION:           0B25 DEFINED AT LINE 1517 IN MAIN.asm
                    > USED AT LINE 198 IN MAIN.asm
IF:                 0B25 DEFINED AT LINE 1518 IN MAIN.asm
QUOTE:              0B32 DEFINED AT LINE 1531 IN MAIN.asm
                    > USED AT LINE 189 IN MAIN.asm
STRING:             0B32 DEFINED AT LINE 1532 IN MAIN.asm
STRING1:            0B3B DEFINED AT LINE 1539 IN MAIN.asm
                    > USED AT LINE 1547 IN MAIN.asm
STRING2:            0B3E DEFINED AT LINE 1543 IN MAIN.asm
                    > USED AT LINE 1538 IN MAIN.asm
STRING3:            0B44 DEFINED AT LINE 1548 IN MAIN.asm
                    > USED AT LINE 1546 IN MAIN.asm
PERCENT:            0B4C DEFINED AT LINE 1558 IN MAIN.asm
                    > USED AT LINE 195 IN MAIN.asm
ARG:                0B4C DEFINED AT LINE 1559 IN MAIN.asm
ARG0:               0B68 DEFINED AT LINE 1578 IN MAIN.asm
                    > USED AT LINE 1584 IN MAIN.asm
ARG0A:              0B71 DEFINED AT LINE 1586 IN MAIN.asm
                    > USED AT LINE 1565 IN MAIN.asm
                    > USED AT LINE 1570 IN MAIN.asm
ARG1:               0B76 DEFINED AT LINE 1589 IN MAIN.asm
                    > USED AT LINE 1582 IN MAIN.asm
ARG1A:              0B7E DEFINED AT LINE 1596 IN MAIN.asm
                    > USED AT LINE 1588 IN MAIN.asm
NUM:                0B81 DEFINED AT LINE 1601 IN MAIN.asm
                    > USED AT LINE 207 IN MAIN.asm
                    > USED AT LINE 315 IN MAIN.asm
                    > USED AT LINE 44
NUM0:               0B8A DEFINED AT LINE 1607 IN MAIN.asm
                    > USED AT LINE 1605 IN MAIN.asm
NUM1:               0B8B DEFINED AT LINE 1609 IN MAIN.asm
                    > USED AT LINE 1626 IN MAIN.asm
NUM2:               0BA3 DEFINED AT LINE 1627 IN MAIN.asm
                    > USED AT LINE 1504 IN MAIN.asm
                    > USED AT LINE 1506 IN MAIN.asm
                    > USED AT LINE 1612 IN MAIN.asm
                    > USED AT LINE 1614 IN MAIN.asm
NUM3:               0BAE DEFINED AT LINE 1635 IN MAIN.asm
                    > USED AT LINE 1630 IN MAIN.asm
RBRACE:             0BB1 DEFINED AT LINE 1640 IN MAIN.asm
                    > USED AT LINE 574 IN MAIN.asm
BLOCKEND:           0BB1 DEFINED AT LINE 1641 IN MAIN.asm
                    > USED AT LINE 1059 IN MAIN.asm
                    > USED AT LINE 1135 IN MAIN.asm
BLOCKEND1:          0BE3 DEFINED AT LINE 1663 IN MAIN.asm
                    > USED AT LINE 1656 IN MAIN.asm
BLOCKEND2:          0BEF DEFINED AT LINE 1670 IN MAIN.asm
                    > USED AT LINE 1662 IN MAIN.asm
BLOCKEND3:          0C01 DEFINED AT LINE 1684 IN MAIN.asm
                    > USED AT LINE 1676 IN MAIN.asm
BLOCKEND4:          0C15 DEFINED AT LINE 1694 IN MAIN.asm
                    > USED AT LINE 1692 IN MAIN.asm
GOBLOCK:            0C1E DEFINED AT LINE 1699 IN MAIN.asm
                    > USED AT LINE 530 IN MAIN.asm
                    > USED AT LINE 534 IN MAIN.asm
GOBLOCK2:           0C43 DEFINED AT LINE 1716 IN MAIN.asm
                    > USED AT LINE 1797 IN MAIN.asm
GOBLOCK3:           0C4D DEFINED AT LINE 1722 IN MAIN.asm
GOFUNC:             0C51 DEFINED AT LINE 1726 IN MAIN.asm
                    > USED AT LINE 532 IN MAIN.asm
GOFUNC1:            0C6A DEFINED AT LINE 1745 IN MAIN.asm
                    > USED AT LINE 1755 IN MAIN.asm
GOFUNC2:            0C70 DEFINED AT LINE 1752 IN MAIN.asm
                    > USED AT LINE 1744 IN MAIN.asm
GOFUNC3:            0C7B DEFINED AT LINE 1758 IN MAIN.asm
                    > USED AT LINE 1734 IN MAIN.asm
GOFUNC4:            0C93 DEFINED AT LINE 1775 IN MAIN.asm
                    > USED AT LINE 1772 IN MAIN.asm
GOFUNC5:            0C96 DEFINED AT LINE 1778 IN MAIN.asm
                    > USED AT LINE 1784 IN MAIN.asm
GOFUNC6:            0C99 DEFINED AT LINE 1782 IN MAIN.asm
                    > USED AT LINE 1777 IN MAIN.asm
GOFUNC7:            0C9C DEFINED AT LINE 1785 IN MAIN.asm
GOFUNC8:            0CA0 DEFINED AT LINE 1790 IN MAIN.asm
                    > USED AT LINE 1710 IN MAIN.asm
                    > USED AT LINE 1774 IN MAIN.asm
ASSIGN:             0CAB DEFINED AT LINE 1801 IN MAIN.asm
                    > USED AT LINE 229 IN MAIN.asm
ASSIGN0:            0CAD DEFINED AT LINE 1804 IN MAIN.asm
                    > USED AT LINE 322 IN MAIN.asm
                    > USED AT LINE 334 IN MAIN.asm
                    > USED AT LINE 377 IN MAIN.asm
                    > USED AT LINE 392 IN MAIN.asm
ASSIGN1:            0CB1 DEFINED AT LINE 1807 IN MAIN.asm
ASSIGN2:            0CBA DEFINED AT LINE 1814 IN MAIN.asm
                    > USED AT LINE 1811 IN MAIN.asm
EQUALS:             0CBC DEFINED AT LINE 1819 IN MAIN.asm
                    > USED AT LINE 234 IN MAIN.asm
NOTEQUALS:          0CC3 DEFINED AT LINE 1825 IN MAIN.asm
                    > USED AT LINE 217 IN MAIN.asm
LESSTHANEQ:         0CCA DEFINED AT LINE 1833 IN MAIN.asm
                    > USED AT LINE 255 IN MAIN.asm
LESSTHAN:           0CCF DEFINED AT LINE 1840 IN MAIN.asm
                    > USED AT LINE 257 IN MAIN.asm
LESSTHAN1:          0CD4 DEFINED AT LINE 1845 IN MAIN.asm
                    > USED AT LINE 1836 IN MAIN.asm
TRUE1:              0CD7 DEFINED AT LINE 1848 IN MAIN.asm
                    > USED AT LINE 922 IN MAIN.asm
                    > USED AT LINE 1822 IN MAIN.asm
                    > USED AT LINE 1828 IN MAIN.asm
NULL1:              0CDD DEFINED AT LINE 1852 IN MAIN.asm
FALSE1:             0CDD DEFINED AT LINE 1853 IN MAIN.asm
                    > USED AT LINE 858 IN MAIN.asm
                    > USED AT LINE 1823 IN MAIN.asm
                    > USED AT LINE 1829 IN MAIN.asm
                    > USED AT LINE 1843 IN MAIN.asm
                    > USED AT LINE 1846 IN MAIN.asm
SPREAD:             0CE3 DEFINED AT LINE 1858 IN MAIN.asm
                    > USED AT LINE 343 IN MAIN.asm
SPREAD1:            0CF0 DEFINED AT LINE 1868 IN MAIN.asm
                    > USED AT LINE 1883 IN MAIN.asm
SPREAD2:            0CFB DEFINED AT LINE 1877 IN MAIN.asm
                    > USED AT LINE 1874 IN MAIN.asm
SPREAD3:            0CFD DEFINED AT LINE 1880 IN MAIN.asm
                    > USED AT LINE 1867 IN MAIN.asm
SHIFTLEFT:          0D07 DEFINED AT LINE 1890 IN MAIN.asm
                    > USED AT LINE 250 IN MAIN.asm
SHIFTLEFT2:         0D11 DEFINED AT LINE 1899 IN MAIN.asm
                    > USED AT LINE 1896 IN MAIN.asm
SHIFTLEFT3:         0D19 DEFINED AT LINE 1904 IN MAIN.asm
                    > USED AT LINE 1907 IN MAIN.asm
SHIFTLEFT4:         0D1A DEFINED AT LINE 1906 IN MAIN.asm
                    > USED AT LINE 1903 IN MAIN.asm
SHIFTRIGHT:         0D23 DEFINED AT LINE 1914 IN MAIN.asm
                    > USED AT LINE 241 IN MAIN.asm
SHIFTRIGHT2:        0D2D DEFINED AT LINE 1923 IN MAIN.asm
                    > USED AT LINE 1920 IN MAIN.asm
SHIFTRIGHT3:        0D35 DEFINED AT LINE 1928 IN MAIN.asm
                    > USED AT LINE 1932 IN MAIN.asm
SHIFTRIGHT4:        0D39 DEFINED AT LINE 1931 IN MAIN.asm
                    > USED AT LINE 1927 IN MAIN.asm
DIVIDE:             0D42 DEFINED AT LINE 1940 IN MAIN.asm
                    > USED AT LINE 983 IN MAIN.asm
DIVIDE1:            0D47 DEFINED AT LINE 1943 IN MAIN.asm
                    > USED AT LINE 1955 IN MAIN.asm
DIVIDE2:            0D54 DEFINED AT LINE 1951 IN MAIN.asm
                    > USED AT LINE 1948 IN MAIN.asm
DIVIDE3:            0D55 DEFINED AT LINE 1953 IN MAIN.asm
                    > USED AT LINE 1950 IN MAIN.asm
DOTNEXT:            0D5B DEFINED AT LINE 1959 IN MAIN.asm
                    > USED AT LINE 551 IN MAIN.asm
                    > USED AT LINE 623 IN MAIN.asm
                    > USED AT LINE 640 IN MAIN.asm
                    > USED AT LINE 667 IN MAIN.asm
                    > USED AT LINE 748 IN MAIN.asm
DOTNEXT1:           0D63 DEFINED AT LINE 1964 IN MAIN.asm
                    > USED AT LINE 1962 IN MAIN.asm
PARSEARGS:          0D75 DEFINED AT LINE 1975 IN MAIN.asm
                    > USED AT LINE 443 IN MAIN.asm
PARSEARGS1:         0D7F DEFINED AT LINE 1982 IN MAIN.asm
                    > USED AT LINE 2003 IN MAIN.asm
PARSEARGS1A:        0D87 DEFINED AT LINE 1988 IN MAIN.asm
                    > USED AT LINE 1985 IN MAIN.asm
PARSEARGS2:         0D8F DEFINED AT LINE 1993 IN MAIN.asm
PARSEARGS3:         0D97 DEFINED AT LINE 2001 IN MAIN.asm
                    > USED AT LINE 1987 IN MAIN.asm
                    > USED AT LINE 1999 IN MAIN.asm
PARSEARGS4:         0D9A DEFINED AT LINE 2004 IN MAIN.asm
                    > USED AT LINE 1990 IN MAIN.asm
                    > USED AT LINE 1992 IN MAIN.asm
PARSEARGS5:         0DA0 DEFINED AT LINE 2010 IN MAIN.asm
                    > USED AT LINE 2008 IN MAIN.asm
PARSEBLOCK:         0DAB DEFINED AT LINE 2023 IN MAIN.asm
                    > USED AT LINE 454 IN MAIN.asm
                    > USED AT LINE 555 IN MAIN.asm
PARSEBLOCK1:        0DAF DEFINED AT LINE 2027 IN MAIN.asm
                    > USED AT LINE 2031 IN MAIN.asm
                    > USED AT LINE 2053 IN MAIN.asm
                    > USED AT LINE 2056 IN MAIN.asm
                    > USED AT LINE 2061 IN MAIN.asm
                    > USED AT LINE 2065 IN MAIN.asm
PARSEBLOCK2:        0DDB DEFINED AT LINE 2054 IN MAIN.asm
                    > USED AT LINE 2041 IN MAIN.asm
                    > USED AT LINE 2043 IN MAIN.asm
                    > USED AT LINE 2045 IN MAIN.asm
PARSEBLOCK3:        0DDE DEFINED AT LINE 2057 IN MAIN.asm
                    > USED AT LINE 2048 IN MAIN.asm
                    > USED AT LINE 2050 IN MAIN.asm
                    > USED AT LINE 2052 IN MAIN.asm
PARSEBLOCK4:        0DE6 DEFINED AT LINE 2063 IN MAIN.asm
                    > USED AT LINE 2034 IN MAIN.asm
                    > USED AT LINE 2036 IN MAIN.asm
                    > USED AT LINE 2038 IN MAIN.asm
PARSEBLOCK5:        0DE9 DEFINED AT LINE 2066 IN MAIN.asm
                    > USED AT LINE 2062 IN MAIN.asm
PARSEBLOCK6:        0E11 DEFINED AT LINE 2085 IN MAIN.asm
                    > USED AT LINE 2072 IN MAIN.asm
CREATEFUNC:         0E15 DEFINED AT LINE 2093 IN MAIN.asm
                    > USED AT LINE 455 IN MAIN.asm
CREATEFUNC0:        0E34 DEFINED AT LINE 2107 IN MAIN.asm
                    > USED AT LINE 2103 IN MAIN.asm
CREATEFUNC1:        0E4C DEFINED AT LINE 2126 IN MAIN.asm
                    > USED AT LINE 2122 IN MAIN.asm
CREATEFUNC2:        0E5F DEFINED AT LINE 2139 IN MAIN.asm
                    > USED AT LINE 2135 IN MAIN.asm
CREATEFUNC2A:       0E7E DEFINED AT LINE 2165 IN MAIN.asm
                    > USED AT LINE 2152 IN MAIN.asm
CREATEFUNC3:        0E8D DEFINED AT LINE 2177 IN MAIN.asm
                    > USED AT LINE 2187 IN MAIN.asm
CREATEFUNC4:        0E98 DEFINED AT LINE 2188 IN MAIN.asm
CREATEFUNC5:        0E99 DEFINED AT LINE 2190 IN MAIN.asm
                    > USED AT LINE 2106 IN MAIN.asm
VARIABLE:           0EB7 DEFINED AT LINE 2217 IN MAIN.asm
                    > USED AT LINE 274 IN MAIN.asm
                    > USED AT LINE 594 IN MAIN.asm
                    > USED AT LINE 1222 IN MAIN.asm
                    > USED AT LINE 1226 IN MAIN.asm
                    > USED AT LINE 1230 IN MAIN.asm
                    > USED AT LINE 1234 IN MAIN.asm
                    > USED AT LINE 1238 IN MAIN.asm
CONSTANT:           0EC6 DEFINED AT LINE 2227 IN MAIN.asm
                    > USED AT LINE 1079 IN MAIN.asm
                    > USED AT LINE 1083 IN MAIN.asm
                    > USED AT LINE 1087 IN MAIN.asm
                    > USED AT LINE 2223 IN MAIN.asm
LOWERCASETABLE:     0EC9 DEFINED AT LINE 2235 IN MAIN.asm
                    > USED AT LINE 780 IN MAIN.asm
LOWERCASETABLE1:    0ED3 DEFINED AT LINE 2242 IN MAIN.asm
                    > USED AT LINE 2251 IN MAIN.asm
LOWERCASETABLE2:    0EDA DEFINED AT LINE 2248 IN MAIN.asm
                    > USED AT LINE 2239 IN MAIN.asm
                    > USED AT LINE 2241 IN MAIN.asm
COMMANDTABLE:       0EDF DEFINED AT LINE 2257 IN MAIN.asm
                    > USED AT LINE 604 IN MAIN.asm
COMMANDTABLE1:      0EE0 DEFINED AT LINE 2259 IN MAIN.asm
                    > USED AT LINE 2247 IN MAIN.asm
COMMANDTABLE2:      0EE1 DEFINED AT LINE 2261 IN MAIN.asm
                    > USED AT LINE 2274 IN MAIN.asm
COMMANDTABLE3:      0EE8 DEFINED AT LINE 2267 IN MAIN.asm
                    > USED AT LINE 2264 IN MAIN.asm
COMMANDTABLE4:      0EF1 DEFINED AT LINE 2275 IN MAIN.asm
                    > USED AT LINE 2266 IN MAIN.asm
                    > USED AT LINE 2270 IN MAIN.asm
CMDTABLE:           0EF7 DEFINED AT LINE 2288 IN MAIN.asm
                    > USED AT LINE 1413 IN MAIN.asm
CMDTABLE1:          0EF8 DEFINED AT LINE 2290 IN MAIN.asm
CMDTABLE2:          0EF8 DEFINED AT LINE 2291 IN MAIN.asm
                    > USED AT LINE 2315 IN MAIN.asm
CMDTABLE3:          0F05 DEFINED AT LINE 2303 IN MAIN.asm
CMDTABLE4:          0F0E DEFINED AT LINE 2311 IN MAIN.asm
                    > USED AT LINE 2302 IN MAIN.asm
CMDTABLE5:          0F13 DEFINED AT LINE 2316 IN MAIN.asm
                    > USED AT LINE 2298 IN MAIN.asm
                    > USED AT LINE 2306 IN MAIN.asm
                    > USED AT LINE 2310 IN MAIN.asm
GETVARADDR:         0F18 DEFINED AT LINE 2323 IN MAIN.asm
                    > USED AT LINE 1011 IN MAIN.asm
GETVARADDR1:        0F2A DEFINED AT LINE 2334 IN MAIN.asm
                    > USED AT LINE 2330 IN MAIN.asm
PUTSTR0:            0F2F DEFINED AT LINE 2340 IN MAIN.asm
                    > USED AT LINE 2346 IN MAIN.asm
PUTSTR:             0F33 DEFINED AT LINE 2343 IN MAIN.asm
                    > USED AT LINE 1970 IN MAIN.asm
                    > USED AT LINE 2410 IN MAIN.asm
                    > USED AT LINE 2467 IN MAIN.asm
NESTING:            0F38 DEFINED AT LINE 2359 IN MAIN.asm
                    > USED AT LINE 2489 IN MAIN.asm
                    > USED AT LINE 2523 IN MAIN.asm
NESTING0:           0F42 DEFINED AT LINE 2365 IN MAIN.asm
                    > USED AT LINE 2361 IN MAIN.asm
                    > USED AT LINE 2363 IN MAIN.asm
NESTING1A:          0F49 DEFINED AT LINE 2370 IN MAIN.asm
                    > USED AT LINE 2367 IN MAIN.asm
NESTING1:           0F4C DEFINED AT LINE 2373 IN MAIN.asm
                    > USED AT LINE 2364 IN MAIN.asm
NESTING2:           0F5B DEFINED AT LINE 2382 IN MAIN.asm
                    > USED AT LINE 2377 IN MAIN.asm
                    > USED AT LINE 2379 IN MAIN.asm
NESTING3:           0F5D DEFINED AT LINE 2385 IN MAIN.asm
                    > USED AT LINE 2381 IN MAIN.asm
NESTING4:           0F68 DEFINED AT LINE 2392 IN MAIN.asm
                    > USED AT LINE 2387 IN MAIN.asm
                    > USED AT LINE 2389 IN MAIN.asm
PROMPT:             0F6A DEFINED AT LINE 2396 IN MAIN.asm
                    > USED AT LINE 2471 IN MAIN.asm
CRLF:               0F73 DEFINED AT LINE 2401 IN MAIN.asm
                    > USED AT LINE 2536 IN MAIN.asm
PRINTSTR:           0F7A DEFINED AT LINE 2408 IN MAIN.asm
                    > USED AT LINE 2397 IN MAIN.asm
                    > USED AT LINE 2402 IN MAIN.asm
                    > USED AT LINE 2596 IN MAIN.asm
                    > USED AT LINE 2601 IN MAIN.asm
                    > USED AT LINE 18
                    > USED AT LINE 21
                    > USED AT LINE 29
                    > USED AT LINE 18
                    > USED AT LINE 21
                    > USED AT LINE 29
                    > USED AT LINE 18
                    > USED AT LINE 21
                    > USED AT LINE 29
                    > USED AT LINE 18
                    > USED AT LINE 21
                    > USED AT LINE 29
                    > USED AT LINE 18
                    > USED AT LINE 21
                    > USED AT LINE 29
                    > USED AT LINE 18
                    > USED AT LINE 21
                    > USED AT LINE 29
                    > USED AT LINE 18
                    > USED AT LINE 21
                    > USED AT LINE 29
                    > USED AT LINE 18
                    > USED AT LINE 21
                    > USED AT LINE 29
                    > USED AT LINE 18
                    > USED AT LINE 21
                    > USED AT LINE 29
                    > USED AT LINE 18
                    > USED AT LINE 21
                    > USED AT LINE 29
                    > USED AT LINE 18
                    > USED AT LINE 21
                    > USED AT LINE 29
                    > USED AT LINE 18
                    > USED AT LINE 21
                    > USED AT LINE 29
                    > USED AT LINE 18
                    > USED AT LINE 21
                    > USED AT LINE 29
                    > USED AT LINE 18
                    > USED AT LINE 21
                    > USED AT LINE 29
                    > USED AT LINE 18
                    > USED AT LINE 21
                    > USED AT LINE 29
                    > USED AT LINE 18
                    > USED AT LINE 21
                    > USED AT LINE 29
                    > USED AT LINE 18
                    > USED AT LINE 21
                    > USED AT LINE 29
                    > USED AT LINE 18
                    > USED AT LINE 21
                    > USED AT LINE 29
                    > USED AT LINE 18
                    > USED AT LINE 21
                    > USED AT LINE 29
                    > USED AT LINE 18
                    > USED AT LINE 21
                    > USED AT LINE 29
                    > USED AT LINE 18
                    > USED AT LINE 21
                    > USED AT LINE 29
                    > USED AT LINE 18
                    > USED AT LINE 21
                    > USED AT LINE 29
                    > USED AT LINE 18
                    > USED AT LINE 21
                    > USED AT LINE 29
                    > USED AT LINE 18
                    > USED AT LINE 21
                    > USED AT LINE 29
                    > USED AT LINE 18
                    > USED AT LINE 21
                    > USED AT LINE 29
                    > USED AT LINE 18
                    > USED AT LINE 21
                    > USED AT LINE 29
                    > USED AT LINE 18
                    > USED AT LINE 21
                    > USED AT LINE 29
                    > USED AT LINE 18
                    > USED AT LINE 21
                    > USED AT LINE 29
                    > USED AT LINE 18
                    > USED AT LINE 21
                    > USED AT LINE 29
                    > USED AT LINE 18
                    > USED AT LINE 21
                    > USED AT LINE 29
                    > USED AT LINE 18
                    > USED AT LINE 21
                    > USED AT LINE 29
                    > USED AT LINE 18
                    > USED AT LINE 21
                    > USED AT LINE 29
                    > USED AT LINE 18
                    > USED AT LINE 21
                    > USED AT LINE 29
                    > USED AT LINE 18
                    > USED AT LINE 21
                    > USED AT LINE 29
                    > USED AT LINE 18
                    > USED AT LINE 21
                    > USED AT LINE 29
                    > USED AT LINE 18
                    > USED AT LINE 21
                    > USED AT LINE 29
                    > USED AT LINE 18
                    > USED AT LINE 21
                    > USED AT LINE 29
                    > USED AT LINE 18
                    > USED AT LINE 21
                    > USED AT LINE 29
                    > USED AT LINE 18
                    > USED AT LINE 21
                    > USED AT LINE 29
                    > USED AT LINE 18
                    > USED AT LINE 21
                    > USED AT LINE 29
                    > USED AT LINE 18
                    > USED AT LINE 21
                    > USED AT LINE 29
                    > USED AT LINE 18
                    > USED AT LINE 21
                    > USED AT LINE 29
                    > USED AT LINE 18
                    > USED AT LINE 21
                    > USED AT LINE 29
                    > USED AT LINE 18
                    > USED AT LINE 21
                    > USED AT LINE 29
                    > USED AT LINE 18
                    > USED AT LINE 21
                    > USED AT LINE 29
                    > USED AT LINE 18
                    > USED AT LINE 21
                    > USED AT LINE 29
                    > USED AT LINE 18
                    > USED AT LINE 21
                    > USED AT LINE 29
                    > USED AT LINE 18
                    > USED AT LINE 21
                    > USED AT LINE 29
                    > USED AT LINE 18
                    > USED AT LINE 21
                    > USED AT LINE 29
                    > USED AT LINE 18
                    > USED AT LINE 21
                    > USED AT LINE 29
                    > USED AT LINE 18
                    > USED AT LINE 21
                    > USED AT LINE 29
                    > USED AT LINE 18
                    > USED AT LINE 21
                    > USED AT LINE 29
                    > USED AT LINE 18
                    > USED AT LINE 21
                    > USED AT LINE 29
                    > USED AT LINE 18
                    > USED AT LINE 21
                    > USED AT LINE 29
                    > USED AT LINE 18
                    > USED AT LINE 21
                    > USED AT LINE 29
                    > USED AT LINE 18
                    > USED AT LINE 21
                    > USED AT LINE 29
                    > USED AT LINE 18
                    > USED AT LINE 21
                    > USED AT LINE 29
                    > USED AT LINE 18
                    > USED AT LINE 21
                    > USED AT LINE 29
                    > USED AT LINE 18
                    > USED AT LINE 21
                    > USED AT LINE 29
                    > USED AT LINE 18
                    > USED AT LINE 21
                    > USED AT LINE 29
                    > USED AT LINE 18
                    > USED AT LINE 21
                    > USED AT LINE 29
                    > USED AT LINE 18
                    > USED AT LINE 21
                    > USED AT LINE 29
                    > USED AT LINE 18
                    > USED AT LINE 21
                    > USED AT LINE 29
                    > USED AT LINE 18
                    > USED AT LINE 21
                    > USED AT LINE 29
                    > USED AT LINE 18
                    > USED AT LINE 21
                    > USED AT LINE 29
                    > USED AT LINE 18
                    > USED AT LINE 21
                    > USED AT LINE 29
                    > USED AT LINE 18
                    > USED AT LINE 21
                    > USED AT LINE 29
                    > USED AT LINE 18
                    > USED AT LINE 21
                    > USED AT LINE 29
                    > USED AT LINE 18
                    > USED AT LINE 21
                    > USED AT LINE 29
                    > USED AT LINE 18
                    > USED AT LINE 21
                    > USED AT LINE 29
                    > USED AT LINE 18
                    > USED AT LINE 21
                    > USED AT LINE 29
                    > USED AT LINE 18
                    > USED AT LINE 21
                    > USED AT LINE 29
                    > USED AT LINE 18
                    > USED AT LINE 21
                    > USED AT LINE 29
                    > USED AT LINE 18
                    > USED AT LINE 21
                    > USED AT LINE 29
                    > USED AT LINE 18
                    > USED AT LINE 21
                    > USED AT LINE 29
                    > USED AT LINE 18
                    > USED AT LINE 21
                    > USED AT LINE 29
                    > USED AT LINE 18
                    > USED AT LINE 21
                    > USED AT LINE 29
                    > USED AT LINE 18
                    > USED AT LINE 21
                    > USED AT LINE 29
                    > USED AT LINE 18
                    > USED AT LINE 21
                    > USED AT LINE 29
                    > USED AT LINE 18
                    > USED AT LINE 21
                    > USED AT LINE 29
                    > USED AT LINE 18
                    > USED AT LINE 21
                    > USED AT LINE 29
                    > USED AT LINE 18
                    > USED AT LINE 21
                    > USED AT LINE 29
                    > USED AT LINE 18
                    > USED AT LINE 21
                    > USED AT LINE 29
                    > USED AT LINE 18
                    > USED AT LINE 21
                    > USED AT LINE 29
                    > USED AT LINE 18
                    > USED AT LINE 21
                    > USED AT LINE 29
                    > USED AT LINE 18
                    > USED AT LINE 21
                    > USED AT LINE 29
                    > USED AT LINE 18
                    > USED AT LINE 21
                    > USED AT LINE 29
                    > USED AT LINE 18
                    > USED AT LINE 21
                    > USED AT LINE 29
                    > USED AT LINE 18
                    > USED AT LINE 21
                    > USED AT LINE 29
                    > USED AT LINE 18
                    > USED AT LINE 21
                    > USED AT LINE 29
                    > USED AT LINE 18
                    > USED AT LINE 21
                    > USED AT LINE 29
                    > USED AT LINE 18
                    > USED AT LINE 21
                    > USED AT LINE 29
                    > USED AT LINE 18
                    > USED AT LINE 21
                    > USED AT LINE 29
                    > USED AT LINE 18
                    > USED AT LINE 21
                    > USED AT LINE 29
                    > USED AT LINE 18
                    > USED AT LINE 21
                    > USED AT LINE 29
                    > USED AT LINE 18
                    > USED AT LINE 21
                    > USED AT LINE 29
                    > USED AT LINE 18
                    > USED AT LINE 21
                    > USED AT LINE 29
                    > USED AT LINE 18
                    > USED AT LINE 21
                    > USED AT LINE 29
                    > USED AT LINE 18
                    > USED AT LINE 21
                    > USED AT LINE 29
                    > USED AT LINE 18
                    > USED AT LINE 21
                    > USED AT LINE 29
                    > USED AT LINE 18
                    > USED AT LINE 21
                    > USED AT LINE 29
                    > USED AT LINE 18
                    > USED AT LINE 21
                    > USED AT LINE 29
                    > USED AT LINE 18
                    > USED AT LINE 21
                    > USED AT LINE 29
                    > USED AT LINE 18
                    > USED AT LINE 21
                    > USED AT LINE 29
                    > USED AT LINE 18
                    > USED AT LINE 21
                    > USED AT LINE 29
                    > USED AT LINE 18
                    > USED AT LINE 21
                    > USED AT LINE 29
                    > USED AT LINE 18
                    > USED AT LINE 21
                    > USED AT LINE 29
                    > USED AT LINE 18
                    > USED AT LINE 21
                    > USED AT LINE 29
                    > USED AT LINE 18
                    > USED AT LINE 21
                    > USED AT LINE 29
                    > USED AT LINE 18
                    > USED AT LINE 21
                    > USED AT LINE 29
                    > USED AT LINE 18
                    > USED AT LINE 21
                    > USED AT LINE 29
                    > USED AT LINE 18
                    > USED AT LINE 21
                    > USED AT LINE 29
                    > USED AT LINE 18
                    > USED AT LINE 21
                    > USED AT LINE 29
                    > USED AT LINE 18
                    > USED AT LINE 21
                    > USED AT LINE 29
                    > USED AT LINE 18
                    > USED AT LINE 21
                    > USED AT LINE 29
                    > USED AT LINE 18
                    > USED AT LINE 21
                    > USED AT LINE 29
                    > USED AT LINE 18
                    > USED AT LINE 21
                    > USED AT LINE 29
                    > USED AT LINE 18
                    > USED AT LINE 21
                    > USED AT LINE 29
                    > USED AT LINE 18
                    > USED AT LINE 21
                    > USED AT LINE 29
                    > USED AT LINE 18
                    > USED AT LINE 21
                    > USED AT LINE 29
                    > USED AT LINE 18
                    > USED AT LINE 21
                    > USED AT LINE 29
                    > USED AT LINE 18
                    > USED AT LINE 21
                    > USED AT LINE 29
                    > USED AT LINE 18
                    > USED AT LINE 21
                    > USED AT LINE 29
                    > USED AT LINE 18
                    > USED AT LINE 21
                    > USED AT LINE 29
                    > USED AT LINE 18
                    > USED AT LINE 21
                    > USED AT LINE 29
                    > USED AT LINE 18
                    > USED AT LINE 21
                    > USED AT LINE 29
                    > USED AT LINE 18
                    > USED AT LINE 21
                    > USED AT LINE 29
                    > USED AT LINE 18
                    > USED AT LINE 21
                    > USED AT LINE 29
                    > USED AT LINE 18
                    > USED AT LINE 21
                    > USED AT LINE 29
                    > USED AT LINE 18
                    > USED AT LINE 21
                    > USED AT LINE 29
                    > USED AT LINE 18
                    > USED AT LINE 21
                    > USED AT LINE 29
                    > USED AT LINE 18
                    > USED AT LINE 21
                    > USED AT LINE 29
                    > USED AT LINE 189
INIT:               0F81 DEFINED AT LINE 2415 IN MAIN.asm
                    > USED AT LINE 2464 IN MAIN.asm
INIT1:              0F89 DEFINED AT LINE 2419 IN MAIN.asm
                    > USED AT LINE 2425 IN MAIN.asm
WARMINIT:           0F91 DEFINED AT LINE 2427 IN MAIN.asm
COLDBOOT0:          0FA4 DEFINED AT LINE 2434 IN MAIN.asm
                    > USED AT LINE 2422 IN MAIN.asm
                    > USED AT LINE 2460 IN MAIN.asm
COLDINIT:           0FAE DEFINED AT LINE 2440 IN MAIN.asm
                    > USED AT LINE 6
                    > USED AT LINE 6
                    > USED AT LINE 6
                    > USED AT LINE 6
                    > USED AT LINE 6
                    > USED AT LINE 6
                    > USED AT LINE 6
                    > USED AT LINE 6
                    > USED AT LINE 6
                    > USED AT LINE 6
                    > USED AT LINE 6
                    > USED AT LINE 6
                    > USED AT LINE 6
                    > USED AT LINE 6
                    > USED AT LINE 6
                    > USED AT LINE 6
                    > USED AT LINE 6
                    > USED AT LINE 6
                    > USED AT LINE 6
                    > USED AT LINE 6
                    > USED AT LINE 6
                    > USED AT LINE 6
                    > USED AT LINE 6
                    > USED AT LINE 6
                    > USED AT LINE 6
                    > USED AT LINE 6
                    > USED AT LINE 6
                    > USED AT LINE 6
                    > USED AT LINE 6
                    > USED AT LINE 6
                    > USED AT LINE 6
                    > USED AT LINE 6
                    > USED AT LINE 6
                    > USED AT LINE 6
                    > USED AT LINE 6
                    > USED AT LINE 6
                    > USED AT LINE 6
                    > USED AT LINE 6
                    > USED AT LINE 6
                    > USED AT LINE 6
                    > USED AT LINE 6
                    > USED AT LINE 6
                    > USED AT LINE 6
                    > USED AT LINE 6
                    > USED AT LINE 6
                    > USED AT LINE 6
                    > USED AT LINE 6
                    > USED AT LINE 6
                    > USED AT LINE 6
                    > USED AT LINE 6
                    > USED AT LINE 6
                    > USED AT LINE 6
                    > USED AT LINE 6
                    > USED AT LINE 6
                    > USED AT LINE 6
                    > USED AT LINE 6
                    > USED AT LINE 6
                    > USED AT LINE 6
                    > USED AT LINE 6
                    > USED AT LINE 6
                    > USED AT LINE 6
                    > USED AT LINE 6
                    > USED AT LINE 6
                    > USED AT LINE 6
                    > USED AT LINE 6
                    > USED AT LINE 6
                    > USED AT LINE 6
                    > USED AT LINE 6
                    > USED AT LINE 6
                    > USED AT LINE 6
                    > USED AT LINE 6
                    > USED AT LINE 6
                    > USED AT LINE 6
                    > USED AT LINE 6
                    > USED AT LINE 6
                    > USED AT LINE 6
                    > USED AT LINE 6
                    > USED AT LINE 6
                    > USED AT LINE 6
                    > USED AT LINE 6
                    > USED AT LINE 6
                    > USED AT LINE 6
                    > USED AT LINE 6
                    > USED AT LINE 6
                    > USED AT LINE 6
                    > USED AT LINE 6
                    > USED AT LINE 6
                    > USED AT LINE 6
                    > USED AT LINE 6
                    > USED AT LINE 6
                    > USED AT LINE 6
                    > USED AT LINE 6
                    > USED AT LINE 6
                    > USED AT LINE 6
                    > USED AT LINE 6
                    > USED AT LINE 6
                    > USED AT LINE 6
                    > USED AT LINE 6
                    > USED AT LINE 6
                    > USED AT LINE 6
                    > USED AT LINE 6
                    > USED AT LINE 6
                    > USED AT LINE 6
                    > USED AT LINE 6
                    > USED AT LINE 6
                    > USED AT LINE 6
                    > USED AT LINE 6
                    > USED AT LINE 6
                    > USED AT LINE 6
                    > USED AT LINE 6
                    > USED AT LINE 6
                    > USED AT LINE 6
                    > USED AT LINE 6
                    > USED AT LINE 6
                    > USED AT LINE 6
                    > USED AT LINE 6
                    > USED AT LINE 6
                    > USED AT LINE 6
                    > USED AT LINE 6
                    > USED AT LINE 6
                    > USED AT LINE 6
                    > USED AT LINE 6
                    > USED AT LINE 6
                    > USED AT LINE 6
                    > USED AT LINE 6
                    > USED AT LINE 6
                    > USED AT LINE 6
                    > USED AT LINE 6
                    > USED AT LINE 6
                    > USED AT LINE 6
                    > USED AT LINE 6
                    > USED AT LINE 6
COLDBOOT1:          0FBF DEFINED AT LINE 2449 IN MAIN.asm
                    > USED AT LINE 2452 IN MAIN.asm
COLDSTART:          0FCC DEFINED AT LINE 2458 IN MAIN.asm
                    > USED AT LINE 826 IN MAIN.asm
START:              0FD5 DEFINED AT LINE 2462 IN MAIN.asm
START1:             0FDB DEFINED AT LINE 2465 IN MAIN.asm
                    > USED AT LINE 2432 IN MAIN.asm
                    > USED AT LINE 2461 IN MAIN.asm
INTERPRET:          0FE1 DEFINED AT LINE 2469 IN MAIN.asm
                    > USED AT LINE 2573 IN MAIN.asm
                    > USED AT LINE 2589 IN MAIN.asm
INTERPRET2:         0FED DEFINED AT LINE 2477 IN MAIN.asm
                    > USED AT LINE 2514 IN MAIN.asm
                    > USED AT LINE 2594 IN MAIN.asm
                    > USED AT LINE 2598 IN MAIN.asm
                    > USED AT LINE 2616 IN MAIN.asm
INTERPRET3:         0FF5 DEFINED AT LINE 2485 IN MAIN.asm
                    > USED AT LINE 2495 IN MAIN.asm
INTERPRET4:         0FFB DEFINED AT LINE 2491 IN MAIN.asm
                    > USED AT LINE 2483 IN MAIN.asm
INTERPRET5:         1000 DEFINED AT LINE 2498 IN MAIN.asm
                    > USED AT LINE 2524 IN MAIN.asm
                    > USED AT LINE 2539 IN MAIN.asm
INTERPRET5A:        1019 DEFINED AT LINE 2513 IN MAIN.asm
INTERPRET6:         101B DEFINED AT LINE 2516 IN MAIN.asm
                    > USED AT LINE 2502 IN MAIN.asm
INTERPRET7:         1029 DEFINED AT LINE 2526 IN MAIN.asm
                    > USED AT LINE 2506 IN MAIN.asm
INTERPRET8:         103C DEFINED AT LINE 2541 IN MAIN.asm
                    > USED AT LINE 2504 IN MAIN.asm
NEXT:               1057 DEFINED AT LINE 2554 IN MAIN.asm
                    > USED AT LINE 2454 IN MAIN.asm
                    > USED AT LINE 2558 IN MAIN.asm
NEXT0:              106B DEFINED AT LINE 2568 IN MAIN.asm
                    > USED AT LINE 2566 IN MAIN.asm
NEXT1:              106C DEFINED AT LINE 2570 IN MAIN.asm
                    > USED AT LINE 2559 IN MAIN.asm
EXIT:               1073 DEFINED AT LINE 2575 IN MAIN.asm
                    > USED AT LINE 2572 IN MAIN.asm
RUN:                1077 DEFINED AT LINE 2580 IN MAIN.asm
                    > USED AT LINE 2587 IN MAIN.asm
                    > USED AT LINE 26
                    > USED AT LINE 34
                    > USED AT LINE 26
                    > USED AT LINE 34
                    > USED AT LINE 26
                    > USED AT LINE 34
                    > USED AT LINE 26
                    > USED AT LINE 34
                    > USED AT LINE 26
                    > USED AT LINE 34
                    > USED AT LINE 26
                    > USED AT LINE 34
                    > USED AT LINE 26
                    > USED AT LINE 34
                    > USED AT LINE 26
                    > USED AT LINE 34
                    > USED AT LINE 26
                    > USED AT LINE 34
                    > USED AT LINE 26
                    > USED AT LINE 34
                    > USED AT LINE 26
                    > USED AT LINE 34
                    > USED AT LINE 26
                    > USED AT LINE 34
                    > USED AT LINE 26
                    > USED AT LINE 34
                    > USED AT LINE 26
                    > USED AT LINE 34
                    > USED AT LINE 26
                    > USED AT LINE 34
                    > USED AT LINE 26
                    > USED AT LINE 34
                    > USED AT LINE 26
                    > USED AT LINE 34
                    > USED AT LINE 26
                    > USED AT LINE 34
                    > USED AT LINE 26
                    > USED AT LINE 34
                    > USED AT LINE 26
                    > USED AT LINE 34
                    > USED AT LINE 26
                    > USED AT LINE 34
                    > USED AT LINE 26
                    > USED AT LINE 34
                    > USED AT LINE 26
                    > USED AT LINE 34
                    > USED AT LINE 26
                    > USED AT LINE 34
                    > USED AT LINE 26
                    > USED AT LINE 34
                    > USED AT LINE 26
                    > USED AT LINE 34
                    > USED AT LINE 26
                    > USED AT LINE 34
                    > USED AT LINE 26
                    > USED AT LINE 34
                    > USED AT LINE 26
                    > USED AT LINE 34
                    > USED AT LINE 26
                    > USED AT LINE 34
                    > USED AT LINE 26
                    > USED AT LINE 34
                    > USED AT LINE 26
                    > USED AT LINE 34
                    > USED AT LINE 26
                    > USED AT LINE 34
                    > USED AT LINE 26
                    > USED AT LINE 34
                    > USED AT LINE 26
                    > USED AT LINE 34
                    > USED AT LINE 26
                    > USED AT LINE 34
                    > USED AT LINE 26
                    > USED AT LINE 34
                    > USED AT LINE 26
                    > USED AT LINE 34
                    > USED AT LINE 26
                    > USED AT LINE 34
                    > USED AT LINE 26
                    > USED AT LINE 34
                    > USED AT LINE 26
                    > USED AT LINE 34
                    > USED AT LINE 26
                    > USED AT LINE 34
                    > USED AT LINE 26
                    > USED AT LINE 34
                    > USED AT LINE 26
                    > USED AT LINE 34
                    > USED AT LINE 26
                    > USED AT LINE 34
                    > USED AT LINE 26
                    > USED AT LINE 34
                    > USED AT LINE 26
                    > USED AT LINE 34
                    > USED AT LINE 26
                    > USED AT LINE 34
                    > USED AT LINE 26
                    > USED AT LINE 34
                    > USED AT LINE 26
                    > USED AT LINE 34
                    > USED AT LINE 26
                    > USED AT LINE 34
                    > USED AT LINE 26
                    > USED AT LINE 34
                    > USED AT LINE 26
                    > USED AT LINE 34
                    > USED AT LINE 26
                    > USED AT LINE 34
                    > USED AT LINE 26
                    > USED AT LINE 34
                    > USED AT LINE 26
                    > USED AT LINE 34
                    > USED AT LINE 26
                    > USED AT LINE 34
                    > USED AT LINE 26
                    > USED AT LINE 34
                    > USED AT LINE 26
                    > USED AT LINE 34
                    > USED AT LINE 26
                    > USED AT LINE 34
                    > USED AT LINE 26
                    > USED AT LINE 34
                    > USED AT LINE 26
                    > USED AT LINE 34
                    > USED AT LINE 26
                    > USED AT LINE 34
                    > USED AT LINE 26
                    > USED AT LINE 34
                    > USED AT LINE 26
                    > USED AT LINE 34
                    > USED AT LINE 26
                    > USED AT LINE 34
                    > USED AT LINE 26
                    > USED AT LINE 34
                    > USED AT LINE 26
                    > USED AT LINE 34
                    > USED AT LINE 26
                    > USED AT LINE 34
                    > USED AT LINE 26
                    > USED AT LINE 34
                    > USED AT LINE 26
                    > USED AT LINE 34
                    > USED AT LINE 26
                    > USED AT LINE 34
                    > USED AT LINE 26
                    > USED AT LINE 34
                    > USED AT LINE 26
                    > USED AT LINE 34
                    > USED AT LINE 26
                    > USED AT LINE 34
                    > USED AT LINE 26
                    > USED AT LINE 34
                    > USED AT LINE 26
                    > USED AT LINE 34
                    > USED AT LINE 26
                    > USED AT LINE 34
                    > USED AT LINE 26
                    > USED AT LINE 34
                    > USED AT LINE 26
                    > USED AT LINE 34
                    > USED AT LINE 26
                    > USED AT LINE 34
                    > USED AT LINE 26
                    > USED AT LINE 34
                    > USED AT LINE 26
                    > USED AT LINE 34
                    > USED AT LINE 26
                    > USED AT LINE 34
                    > USED AT LINE 26
                    > USED AT LINE 34
                    > USED AT LINE 26
                    > USED AT LINE 34
                    > USED AT LINE 26
                    > USED AT LINE 34
                    > USED AT LINE 26
                    > USED AT LINE 34
                    > USED AT LINE 26
                    > USED AT LINE 34
                    > USED AT LINE 26
                    > USED AT LINE 34
                    > USED AT LINE 26
                    > USED AT LINE 34
                    > USED AT LINE 26
                    > USED AT LINE 34
                    > USED AT LINE 26
                    > USED AT LINE 34
                    > USED AT LINE 26
                    > USED AT LINE 34
                    > USED AT LINE 26
                    > USED AT LINE 34
                    > USED AT LINE 26
                    > USED AT LINE 34
                    > USED AT LINE 26
                    > USED AT LINE 34
                    > USED AT LINE 26
                    > USED AT LINE 34
                    > USED AT LINE 26
                    > USED AT LINE 34
                    > USED AT LINE 26
                    > USED AT LINE 34
                    > USED AT LINE 26
                    > USED AT LINE 34
                    > USED AT LINE 26
                    > USED AT LINE 34
                    > USED AT LINE 26
                    > USED AT LINE 34
                    > USED AT LINE 26
                    > USED AT LINE 34
                    > USED AT LINE 26
                    > USED AT LINE 34
                    > USED AT LINE 26
                    > USED AT LINE 34
                    > USED AT LINE 26
                    > USED AT LINE 34
                    > USED AT LINE 26
                    > USED AT LINE 34
                    > USED AT LINE 26
                    > USED AT LINE 34
                    > USED AT LINE 26
                    > USED AT LINE 34
                    > USED AT LINE 26
                    > USED AT LINE 34
                    > USED AT LINE 26
                    > USED AT LINE 34
                    > USED AT LINE 26
                    > USED AT LINE 34
                    > USED AT LINE 26
                    > USED AT LINE 34
                    > USED AT LINE 26
                    > USED AT LINE 34
                    > USED AT LINE 26
                    > USED AT LINE 34
                    > USED AT LINE 26
                    > USED AT LINE 34
                    > USED AT LINE 26
                    > USED AT LINE 34
                    > USED AT LINE 26
                    > USED AT LINE 34
                    > USED AT LINE 26
                    > USED AT LINE 34
                    > USED AT LINE 26
                    > USED AT LINE 34
                    > USED AT LINE 26
                    > USED AT LINE 34
                    > USED AT LINE 26
                    > USED AT LINE 34
                    > USED AT LINE 26
                    > USED AT LINE 34
                    > USED AT LINE 26
                    > USED AT LINE 34
                    > USED AT LINE 26
                    > USED AT LINE 34
                    > USED AT LINE 26
                    > USED AT LINE 34
                    > USED AT LINE 26
                    > USED AT LINE 34
                    > USED AT LINE 26
                    > USED AT LINE 34
                    > USED AT LINE 26
                    > USED AT LINE 34
                    > USED AT LINE 26
                    > USED AT LINE 34
                    > USED AT LINE 26
                    > USED AT LINE 34
ERROR:              107B DEFINED AT LINE 2585 IN MAIN.asm
                    > USED AT LINE 452 IN MAIN.asm
                    > USED AT LINE 1101 IN MAIN.asm
BACKSPACE_:         108D DEFINED AT LINE 2591 IN MAIN.asm
                    > USED AT LINE 2509 IN MAIN.asm
REEDIT_:            109D DEFINED AT LINE 2600 IN MAIN.asm
                    > USED AT LINE 2511 IN MAIN.asm
REEDIT0:            10A9 DEFINED AT LINE 2605 IN MAIN.asm
                    > USED AT LINE 2611 IN MAIN.asm
REEDIT1:            10AD DEFINED AT LINE 2608 IN MAIN.asm
                    > USED AT LINE 2604 IN MAIN.asm
F1:                 10BD DEFINED AT LINE 32
                    > USED AT LINE 850 IN MAIN.asm
F1M_2985S12:        10C8 DEFINED AT LINE 39
                    > USED AT LINE 35
F2:                 10C9 DEFINED AT LINE 32
                    > USED AT LINE 852 IN MAIN.asm
F2M_2987S15:        10D4 DEFINED AT LINE 39
                    > USED AT LINE 35
F3:                 10D5 DEFINED AT LINE 32
                    > USED AT LINE 854 IN MAIN.asm
F3M_2989S18:        10E0 DEFINED AT LINE 39
                    > USED AT LINE 35
F4:                 10E1 DEFINED AT LINE 32
                    > USED AT LINE 856 IN MAIN.asm
F4M_2991S21:        10EC DEFINED AT LINE 39
                    > USED AT LINE 35
TESTSSTART:         1100 DEFINED AT LINE 25
                    > USED AT LINE 8
EXPECTM_2995S27:    1190 DEFINED AT LINE 37
                    > USED AT LINE 16
EXPECTM_3016S53:    11F9 DEFINED AT LINE 37
                    > USED AT LINE 16
EXPECTM_3017S54:    1262 DEFINED AT LINE 37
                    > USED AT LINE 16
EXPECTM_3018S55:    12C9 DEFINED AT LINE 37
                    > USED AT LINE 16
EXPECTM_3019S56:    1330 DEFINED AT LINE 37
                    > USED AT LINE 16
EXPECTM_3020S57:    1397 DEFINED AT LINE 37
                    > USED AT LINE 16
EXPECTM_3021S58:    13FE DEFINED AT LINE 37
                    > USED AT LINE 16
EXPECTM_3022S59:    1467 DEFINED AT LINE 37
                    > USED AT LINE 16
EXPECTM_3023S60:    14D2 DEFINED AT LINE 37
                    > USED AT LINE 16
EXPECTM_3024S61:    153B DEFINED AT LINE 37
                    > USED AT LINE 16
EXPECTM_3025S62:    15AA DEFINED AT LINE 37
                    > USED AT LINE 16
EXPECTM_3026S63:    1613 DEFINED AT LINE 37
                    > USED AT LINE 16
EXPECTM_3027S64:    167C DEFINED AT LINE 37
                    > USED AT LINE 16
EXPECTM_3028S65:    16E7 DEFINED AT LINE 37
                    > USED AT LINE 16
EXPECTM_3029S66:    1752 DEFINED AT LINE 37
                    > USED AT LINE 16
EXPECTM_3030S67:    17C3 DEFINED AT LINE 37
                    > USED AT LINE 16
EXPECTM_3031S68:    1834 DEFINED AT LINE 37
                    > USED AT LINE 16
EXPECTM_3032S69:    18A3 DEFINED AT LINE 37
                    > USED AT LINE 16
EXPECTM_3033S70:    1916 DEFINED AT LINE 37
                    > USED AT LINE 16
EXPECTM_3034S71:    198D DEFINED AT LINE 37
                    > USED AT LINE 16
EXPECTM_3035S72:    1A02 DEFINED AT LINE 37
                    > USED AT LINE 16
EXPECTM_3036S73:    1A71 DEFINED AT LINE 37
                    > USED AT LINE 16
EXPECTM_3037S74:    1AE8 DEFINED AT LINE 37
                    > USED AT LINE 16
EXPECTM_3038S75:    1B5B DEFINED AT LINE 37
                    > USED AT LINE 16
EXPECTM_3039S76:    1BCA DEFINED AT LINE 37
                    > USED AT LINE 16
EXPECTM_3040S77:    1C39 DEFINED AT LINE 37
                    > USED AT LINE 16
EXPECTM_3041S78:    1CB0 DEFINED AT LINE 37
                    > USED AT LINE 16
EXPECTM_3042S79:    1D1F DEFINED AT LINE 37
                    > USED AT LINE 16
EXPECTM_3043S80:    1D8E DEFINED AT LINE 37
                    > USED AT LINE 16
EXPECTM_3044S81:    1DFF DEFINED AT LINE 37
                    > USED AT LINE 16
EXPECTM_3045S82:    1E80 DEFINED AT LINE 37
                    > USED AT LINE 16
EXPECTM_3046S83:    1EEB DEFINED AT LINE 37
                    > USED AT LINE 16
EXPECTM_3047S84:    1F56 DEFINED AT LINE 37
                    > USED AT LINE 16
EXPECTM_3048S85:    1FC3 DEFINED AT LINE 37
                    > USED AT LINE 16
EXPECTM_3049S86:    2030 DEFINED AT LINE 37
                    > USED AT LINE 16
EXPECTM_3050S87:    209F DEFINED AT LINE 37
                    > USED AT LINE 16
EXPECTM_3051S88:    2116 DEFINED AT LINE 37
                    > USED AT LINE 16
EXPECTM_3052S89:    2185 DEFINED AT LINE 37
                    > USED AT LINE 16
EXPECTM_3053S90:    2202 DEFINED AT LINE 37
                    > USED AT LINE 16
EXPECTM_3054S91:    227F DEFINED AT LINE 37
                    > USED AT LINE 16
EXPECTM_3055S92:    22FC DEFINED AT LINE 37
                    > USED AT LINE 16
EXPECTM_3056S93:    237B DEFINED AT LINE 37
                    > USED AT LINE 16
EXPECTM_3057S94:    23FE DEFINED AT LINE 37
                    > USED AT LINE 16
EXPECTM_3058S95:    2481 DEFINED AT LINE 37
                    > USED AT LINE 16
EXPECTM_3059S96:    2504 DEFINED AT LINE 37
                    > USED AT LINE 16
EXPECTM_3060S97:    2587 DEFINED AT LINE 37
                    > USED AT LINE 16
EXPECTM_3061S98:    2608 DEFINED AT LINE 37
                    > USED AT LINE 16
EXPECTM_3062S99:    2689 DEFINED AT LINE 37
                    > USED AT LINE 16
EXPECTM_3063S100:   270E DEFINED AT LINE 37
                    > USED AT LINE 16
EXPECTM_3064S101:   277F DEFINED AT LINE 37
                    > USED AT LINE 16
EXPECTM_3065S102:   27FE DEFINED AT LINE 37
                    > USED AT LINE 16
EXPECTM_3066S103:   287D DEFINED AT LINE 37
                    > USED AT LINE 16
EXPECTM_3067S104:   28FE DEFINED AT LINE 37
                    > USED AT LINE 16
EXPECTM_3068S105:   2975 DEFINED AT LINE 37
                    > USED AT LINE 16
EXPECTM_3069S106:   29E4 DEFINED AT LINE 37
                    > USED AT LINE 16
EXPECTM_3070S107:   2A55 DEFINED AT LINE 37
                    > USED AT LINE 16
EXPECTM_3071S108:   2AC6 DEFINED AT LINE 37
                    > USED AT LINE 16
EXPECTM_3072S109:   2B35 DEFINED AT LINE 37
                    > USED AT LINE 16
EXPECTM_3073S110:   2BA4 DEFINED AT LINE 37
                    > USED AT LINE 16
EXPECTM_3074S111:   2C13 DEFINED AT LINE 37
                    > USED AT LINE 16
EXPECTM_3075S112:   2C82 DEFINED AT LINE 37
                    > USED AT LINE 16
EXPECTM_3076S113:   2CF1 DEFINED AT LINE 37
                    > USED AT LINE 16
EXPECTM_3077S114:   2D60 DEFINED AT LINE 37
                    > USED AT LINE 16
EXPECTM_3078S115:   2DCF DEFINED AT LINE 37
                    > USED AT LINE 16
EXPECTM_3079S116:   2E3E DEFINED AT LINE 37
                    > USED AT LINE 16
EXPECTM_3080S117:   2EAF DEFINED AT LINE 37
                    > USED AT LINE 16
EXPECTM_3081S118:   2F20 DEFINED AT LINE 37
                    > USED AT LINE 16
EXPECTM_3082S119:   2F91 DEFINED AT LINE 37
                    > USED AT LINE 16
EXPECTM_3083S120:   3004 DEFINED AT LINE 37
                    > USED AT LINE 16
EXPECTM_3084S121:   3077 DEFINED AT LINE 37
                    > USED AT LINE 16
EXPECTM_3085S122:   30E4 DEFINED AT LINE 37
                    > USED AT LINE 16
EXPECTM_3086S123:   3151 DEFINED AT LINE 37
                    > USED AT LINE 16
EXPECTM_3087S124:   31C4 DEFINED AT LINE 37
                    > USED AT LINE 16
EXPECTM_3088S125:   323D DEFINED AT LINE 37
                    > USED AT LINE 16
EXPECTM_3089S126:   32C2 DEFINED AT LINE 37
                    > USED AT LINE 16
EXPECTM_3090S127:   3347 DEFINED AT LINE 37
                    > USED AT LINE 16
EXPECTM_3091S128:   33B6 DEFINED AT LINE 37
                    > USED AT LINE 16
EXPECTM_3092S129:   3427 DEFINED AT LINE 37
                    > USED AT LINE 16
EXPECTM_3093S130:   349E DEFINED AT LINE 37
                    > USED AT LINE 16
EXPECTM_3094S131:   3519 DEFINED AT LINE 37
                    > USED AT LINE 16
EXPECTM_3095S132:   3590 DEFINED AT LINE 37
                    > USED AT LINE 16
EXPECTM_3096S133:   3611 DEFINED AT LINE 37
                    > USED AT LINE 16
EXPECTM_3097S134:   3694 DEFINED AT LINE 37
                    > USED AT LINE 16
EXPECTM_3098S135:   371D DEFINED AT LINE 37
                    > USED AT LINE 16
EXPECTM_3099S136:   37AA DEFINED AT LINE 37
                    > USED AT LINE 16
EXPECTM_3100S137:   3829 DEFINED AT LINE 37
                    > USED AT LINE 16
EXPECTM_3101S138:   38AE DEFINED AT LINE 37
                    > USED AT LINE 16
EXPECTM_3102S139:   3935 DEFINED AT LINE 37
                    > USED AT LINE 16
EXPECTM_3103S140:   39BE DEFINED AT LINE 37
                    > USED AT LINE 16
EXPECTM_3104S141:   3A45 DEFINED AT LINE 37
                    > USED AT LINE 16
EXPECTM_3105S142:   3ADA DEFINED AT LINE 37
                    > USED AT LINE 16
EXPECTM_3106S143:   3B5D DEFINED AT LINE 37
                    > USED AT LINE 16
EXPECTM_3107S144:   3BEE DEFINED AT LINE 37
                    > USED AT LINE 16
EXPECTM_3108S145:   3C81 DEFINED AT LINE 37
                    > USED AT LINE 16
EXPECTM_3109S146:   3D16 DEFINED AT LINE 37
                    > USED AT LINE 16
EXPECTM_3110S147:   3DB3 DEFINED AT LINE 37
                    > USED AT LINE 16
EXPECTM_3111S148:   3E50 DEFINED AT LINE 37
                    > USED AT LINE 16
EXPECTM_3112S149:   3ECF DEFINED AT LINE 37
                    > USED AT LINE 16
EXPECTM_3113S150:   3F56 DEFINED AT LINE 37
                    > USED AT LINE 16
EXPECTM_3114S151:   3FD7 DEFINED AT LINE 37
                    > USED AT LINE 16
EXPECTM_3115S152:   405E DEFINED AT LINE 37
                    > USED AT LINE 16
EXPECTM_3116S153:   40E9 DEFINED AT LINE 37
                    > USED AT LINE 16
EXPECTM_3117S154:   4182 DEFINED AT LINE 37
                    > USED AT LINE 16
EXPECTM_3118S155:   4223 DEFINED AT LINE 37
                    > USED AT LINE 16
EXPECTM_3119S156:   42C4 DEFINED AT LINE 37
                    > USED AT LINE 16
EXPECTM_3120S157:   4357 DEFINED AT LINE 37
                    > USED AT LINE 16
EXPECTM_3121S158:   43F0 DEFINED AT LINE 37
                    > USED AT LINE 16
EXPECTM_3122S159:   449F DEFINED AT LINE 37
                    > USED AT LINE 16
EXPECTM_3123S160:   4548 DEFINED AT LINE 37
                    > USED AT LINE 16
EXPECTM_3124S161:   45FF DEFINED AT LINE 37
                    > USED AT LINE 16
EXPECTM_3125S162:   46B8 DEFINED AT LINE 37
                    > USED AT LINE 16
EXPECTM_3126S163:   4743 DEFINED AT LINE 37
                    > USED AT LINE 16
EXPECTM_3127S164:   47CE DEFINED AT LINE 37
                    > USED AT LINE 16
EXPECTM_3128S165:   4847 DEFINED AT LINE 37
                    > USED AT LINE 16
EXPECTM_3129S166:   48C0 DEFINED AT LINE 37
                    > USED AT LINE 16
EXPECTM_3130S167:   4939 DEFINED AT LINE 37
                    > USED AT LINE 16
EXPECTM_3131S168:   49B2 DEFINED AT LINE 37
                    > USED AT LINE 16
EXPECTM_3132S169:   4A23 DEFINED AT LINE 37
                    > USED AT LINE 16
EXPECTM_3133S170:   4A94 DEFINED AT LINE 37
                    > USED AT LINE 16
EXPECTM_3134S171:   4B05 DEFINED AT LINE 37
                    > USED AT LINE 16
EXPECTM_3135S172:   4B76 DEFINED AT LINE 37
                    > USED AT LINE 16
EXPECTM_3136S173:   4BF3 DEFINED AT LINE 37
                    > USED AT LINE 16
EXPECTM_3137S174:   4C7E DEFINED AT LINE 37
                    > USED AT LINE 16
EXPECTM_3138S175:   4D0F DEFINED AT LINE 37
                    > USED AT LINE 16
EXPECTM_3139S176:   4DB8 DEFINED AT LINE 37
                    > USED AT LINE 16
EXPECTM_3140S177:   4E61 DEFINED AT LINE 37
                    > USED AT LINE 16
EXPECTM_3141S178:   4F24 DEFINED AT LINE 37
                    > USED AT LINE 16
EXPECTM_3142S179:   4F9D DEFINED AT LINE 37
                    > USED AT LINE 16
EXPECTM_3143S180:   5026 DEFINED AT LINE 37
                    > USED AT LINE 16
EXPECTM_3144S181:   50B1 DEFINED AT LINE 37
                    > USED AT LINE 16
EXPECTM_3145S182:   5130 DEFINED AT LINE 37
                    > USED AT LINE 16
EXPECTM_3146S183:   51C1 DEFINED AT LINE 37
                    > USED AT LINE 16
EXECSTR:            51CC DEFINED AT LINE 3 IN test.fast.util.asm
                    > USED AT LINE 7
                    > USED AT LINE 7
                    > USED AT LINE 7
                    > USED AT LINE 7
                    > USED AT LINE 7
                    > USED AT LINE 7
                    > USED AT LINE 7
                    > USED AT LINE 7
                    > USED AT LINE 7
                    > USED AT LINE 7
                    > USED AT LINE 7
                    > USED AT LINE 7
                    > USED AT LINE 7
                    > USED AT LINE 7
                    > USED AT LINE 7
                    > USED AT LINE 7
                    > USED AT LINE 7
                    > USED AT LINE 7
                    > USED AT LINE 7
                    > USED AT LINE 7
                    > USED AT LINE 7
                    > USED AT LINE 7
                    > USED AT LINE 7
                    > USED AT LINE 7
                    > USED AT LINE 7
                    > USED AT LINE 7
                    > USED AT LINE 7
                    > USED AT LINE 7
                    > USED AT LINE 7
                    > USED AT LINE 7
                    > USED AT LINE 7
                    > USED AT LINE 7
                    > USED AT LINE 7
                    > USED AT LINE 7
                    > USED AT LINE 7
                    > USED AT LINE 7
                    > USED AT LINE 7
                    > USED AT LINE 7
                    > USED AT LINE 7
                    > USED AT LINE 7
                    > USED AT LINE 7
                    > USED AT LINE 7
                    > USED AT LINE 7
                    > USED AT LINE 7
                    > USED AT LINE 7
                    > USED AT LINE 7
                    > USED AT LINE 7
                    > USED AT LINE 7
                    > USED AT LINE 7
                    > USED AT LINE 7
                    > USED AT LINE 7
                    > USED AT LINE 7
                    > USED AT LINE 7
                    > USED AT LINE 7
                    > USED AT LINE 7
                    > USED AT LINE 7
                    > USED AT LINE 7
                    > USED AT LINE 7
                    > USED AT LINE 7
                    > USED AT LINE 7
                    > USED AT LINE 7
                    > USED AT LINE 7
                    > USED AT LINE 7
                    > USED AT LINE 7
                    > USED AT LINE 7
                    > USED AT LINE 7
                    > USED AT LINE 7
                    > USED AT LINE 7
                    > USED AT LINE 7
                    > USED AT LINE 7
                    > USED AT LINE 7
                    > USED AT LINE 7
                    > USED AT LINE 7
                    > USED AT LINE 7
                    > USED AT LINE 7
                    > USED AT LINE 7
                    > USED AT LINE 7
                    > USED AT LINE 7
                    > USED AT LINE 7
                    > USED AT LINE 7
                    > USED AT LINE 7
                    > USED AT LINE 7
                    > USED AT LINE 7
                    > USED AT LINE 7
                    > USED AT LINE 7
                    > USED AT LINE 7
                    > USED AT LINE 7
                    > USED AT LINE 7
                    > USED AT LINE 7
                    > USED AT LINE 7
                    > USED AT LINE 7
                    > USED AT LINE 7
                    > USED AT LINE 7
                    > USED AT LINE 7
                    > USED AT LINE 7
                    > USED AT LINE 7
                    > USED AT LINE 7
                    > USED AT LINE 7
                    > USED AT LINE 7
                    > USED AT LINE 7
                    > USED AT LINE 7
                    > USED AT LINE 7
                    > USED AT LINE 7
                    > USED AT LINE 7
                    > USED AT LINE 7
                    > USED AT LINE 7
                    > USED AT LINE 7
                    > USED AT LINE 7
                    > USED AT LINE 7
                    > USED AT LINE 7
                    > USED AT LINE 7
                    > USED AT LINE 7
                    > USED AT LINE 7
                    > USED AT LINE 7
                    > USED AT LINE 7
                    > USED AT LINE 7
                    > USED AT LINE 7
                    > USED AT LINE 7
                    > USED AT LINE 7
                    > USED AT LINE 7
                    > USED AT LINE 7
                    > USED AT LINE 7
                    > USED AT LINE 7
                    > USED AT LINE 7
                    > USED AT LINE 7
                    > USED AT LINE 7
                    > USED AT LINE 7
                    > USED AT LINE 7
                    > USED AT LINE 7
                    > USED AT LINE 7
                    > USED AT LINE 7
                    > USED AT LINE 7
STKSIZE:            0100 DEFINED AT LINE 1 IN ram.asm
                    > USED AT LINE 6 IN ram.asm
TIBSIZE:            0100 DEFINED AT LINE 2 IN ram.asm
                    > USED AT LINE 10 IN ram.asm
BUFSIZE:            0100 DEFINED AT LINE 3 IN ram.asm
                    > USED AT LINE 13 IN ram.asm
STACK:              5300 DEFINED AT LINE 7 IN ram.asm
                    > USED AT LINE 451 IN IOSerial.asm
                    > USED AT LINE 1701 IN MAIN.asm
                    > USED AT LINE 2455 IN MAIN.asm
                    > USED AT LINE 2459 IN MAIN.asm
                    > USED AT LINE 2463 IN MAIN.asm
                    > USED AT LINE 5
                    > USED AT LINE 5
                    > USED AT LINE 5
                    > USED AT LINE 5
                    > USED AT LINE 5
                    > USED AT LINE 5
                    > USED AT LINE 5
                    > USED AT LINE 5
                    > USED AT LINE 5
                    > USED AT LINE 5
                    > USED AT LINE 5
                    > USED AT LINE 5
                    > USED AT LINE 5
                    > USED AT LINE 5
                    > USED AT LINE 5
                    > USED AT LINE 5
                    > USED AT LINE 5
                    > USED AT LINE 5
                    > USED AT LINE 5
                    > USED AT LINE 5
                    > USED AT LINE 5
                    > USED AT LINE 5
                    > USED AT LINE 5
                    > USED AT LINE 5
                    > USED AT LINE 5
                    > USED AT LINE 5
                    > USED AT LINE 5
                    > USED AT LINE 5
                    > USED AT LINE 5
                    > USED AT LINE 5
                    > USED AT LINE 5
                    > USED AT LINE 5
                    > USED AT LINE 5
                    > USED AT LINE 5
                    > USED AT LINE 5
                    > USED AT LINE 5
                    > USED AT LINE 5
                    > USED AT LINE 5
                    > USED AT LINE 5
                    > USED AT LINE 5
                    > USED AT LINE 5
                    > USED AT LINE 5
                    > USED AT LINE 5
                    > USED AT LINE 5
                    > USED AT LINE 5
                    > USED AT LINE 5
                    > USED AT LINE 5
                    > USED AT LINE 5
                    > USED AT LINE 5
                    > USED AT LINE 5
                    > USED AT LINE 5
                    > USED AT LINE 5
                    > USED AT LINE 5
                    > USED AT LINE 5
                    > USED AT LINE 5
                    > USED AT LINE 5
                    > USED AT LINE 5
                    > USED AT LINE 5
                    > USED AT LINE 5
                    > USED AT LINE 5
                    > USED AT LINE 5
                    > USED AT LINE 5
                    > USED AT LINE 5
                    > USED AT LINE 5
                    > USED AT LINE 5
                    > USED AT LINE 5
                    > USED AT LINE 5
                    > USED AT LINE 5
                    > USED AT LINE 5
                    > USED AT LINE 5
                    > USED AT LINE 5
                    > USED AT LINE 5
                    > USED AT LINE 5
                    > USED AT LINE 5
                    > USED AT LINE 5
                    > USED AT LINE 5
                    > USED AT LINE 5
                    > USED AT LINE 5
                    > USED AT LINE 5
                    > USED AT LINE 5
                    > USED AT LINE 5
                    > USED AT LINE 5
                    > USED AT LINE 5
                    > USED AT LINE 5
                    > USED AT LINE 5
                    > USED AT LINE 5
                    > USED AT LINE 5
                    > USED AT LINE 5
                    > USED AT LINE 5
                    > USED AT LINE 5
                    > USED AT LINE 5
                    > USED AT LINE 5
                    > USED AT LINE 5
                    > USED AT LINE 5
                    > USED AT LINE 5
                    > USED AT LINE 5
                    > USED AT LINE 5
                    > USED AT LINE 5
                    > USED AT LINE 5
                    > USED AT LINE 5
                    > USED AT LINE 5
                    > USED AT LINE 5
                    > USED AT LINE 5
                    > USED AT LINE 5
                    > USED AT LINE 5
                    > USED AT LINE 5
                    > USED AT LINE 5
                    > USED AT LINE 5
                    > USED AT LINE 5
                    > USED AT LINE 5
                    > USED AT LINE 5
                    > USED AT LINE 5
                    > USED AT LINE 5
                    > USED AT LINE 5
                    > USED AT LINE 5
                    > USED AT LINE 5
                    > USED AT LINE 5
                    > USED AT LINE 5
                    > USED AT LINE 5
                    > USED AT LINE 5
                    > USED AT LINE 5
                    > USED AT LINE 5
                    > USED AT LINE 5
                    > USED AT LINE 5
                    > USED AT LINE 5
                    > USED AT LINE 5
                    > USED AT LINE 5
                    > USED AT LINE 5
                    > USED AT LINE 5
                    > USED AT LINE 5
                    > USED AT LINE 5
                    > USED AT LINE 5
TIB:                5300 DEFINED AT LINE 10 IN ram.asm
                    > USED AT LINE 154 IN MAIN.asm
                    > USED AT LINE 1082 IN MAIN.asm
                    > USED AT LINE 2474 IN MAIN.asm
                    > USED AT LINE 2482 IN MAIN.asm
                    > USED AT LINE 2518 IN MAIN.asm
                    > USED AT LINE 2528 IN MAIN.asm
                    > USED AT LINE 2543 IN MAIN.asm
                    > USED AT LINE 2546 IN MAIN.asm
                    > USED AT LINE 2603 IN MAIN.asm
                    > USED AT LINE 2612 IN MAIN.asm
BUFFER:             5400 DEFINED AT LINE 13 IN ram.asm
                    > USED AT LINE 155 IN MAIN.asm
                    > USED AT LINE 1086 IN MAIN.asm
                    > USED AT LINE 1160 IN MAIN.asm
                    > USED AT LINE 1171 IN MAIN.asm
                    > USED AT LINE 1965 IN MAIN.asm
VARS:               5500 DEFINED AT LINE 16 IN ram.asm
                    > USED AT LINE 2446 IN MAIN.asm
                    > USED AT LINE 11
                    > USED AT LINE 23
                    > USED AT LINE 11
                    > USED AT LINE 23
                    > USED AT LINE 11
                    > USED AT LINE 23
                    > USED AT LINE 11
                    > USED AT LINE 23
RESTARTS:           55D0 DEFINED AT LINE 18 IN ram.asm
RST08:              55D0 DEFINED AT LINE 20 IN ram.asm
                    > USED AT LINE 107 IN IOSerial.asm
                    > USED AT LINE 453 IN IOSerial.asm
RST10:              55D2 DEFINED AT LINE 21 IN ram.asm
                    > USED AT LINE 114 IN IOSerial.asm
                    > USED AT LINE 454 IN IOSerial.asm
RST18:              55D4 DEFINED AT LINE 22 IN ram.asm
                    > USED AT LINE 121 IN IOSerial.asm
                    > USED AT LINE 455 IN IOSerial.asm
RST20:              55D6 DEFINED AT LINE 23 IN ram.asm
                    > USED AT LINE 128 IN IOSerial.asm
                    > USED AT LINE 456 IN IOSerial.asm
RST28:              55D8 DEFINED AT LINE 24 IN ram.asm
                    > USED AT LINE 135 IN IOSerial.asm
                    > USED AT LINE 457 IN IOSerial.asm
RST30:              55DA DEFINED AT LINE 25 IN ram.asm
                    > USED AT LINE 142 IN IOSerial.asm
                    > USED AT LINE 458 IN IOSerial.asm
BAUD:               55DC DEFINED AT LINE 26 IN ram.asm
INTVEC:             55DE DEFINED AT LINE 27 IN ram.asm
                    > USED AT LINE 149 IN IOSerial.asm
                    > USED AT LINE 459 IN IOSerial.asm
NMIVEC:             55E0 DEFINED AT LINE 28 IN ram.asm
                    > USED AT LINE 197 IN IOSerial.asm
                    > USED AT LINE 460 IN IOSerial.asm
GETCVEC:            55E2 DEFINED AT LINE 29 IN ram.asm
                    > USED AT LINE 441 IN IOSerial.asm
                    > USED AT LINE 463 IN IOSerial.asm
PUTCVEC:            55E4 DEFINED AT LINE 30 IN ram.asm
                    > USED AT LINE 446 IN IOSerial.asm
                    > USED AT LINE 465 IN IOSerial.asm
SYSVARS:            55E6 DEFINED AT LINE 32 IN ram.asm
                    > USED AT LINE 2442 IN MAIN.asm
VTIBPTR:            55E6 DEFINED AT LINE 36 IN ram.asm
                    > USED AT LINE 1233 IN MAIN.asm
                    > USED AT LINE 2475 IN MAIN.asm
                    > USED AT LINE 2545 IN MAIN.asm
VBUFPTR:            55E8 DEFINED AT LINE 37 IN ram.asm
                    > USED AT LINE 540 IN MAIN.asm
                    > USED AT LINE 550 IN MAIN.asm
                    > USED AT LINE 619 IN MAIN.asm
                    > USED AT LINE 622 IN MAIN.asm
                    > USED AT LINE 629 IN MAIN.asm
                    > USED AT LINE 639 IN MAIN.asm
                    > USED AT LINE 653 IN MAIN.asm
                    > USED AT LINE 666 IN MAIN.asm
                    > USED AT LINE 728 IN MAIN.asm
                    > USED AT LINE 747 IN MAIN.asm
                    > USED AT LINE 1155 IN MAIN.asm
                    > USED AT LINE 1172 IN MAIN.asm
                    > USED AT LINE 1221 IN MAIN.asm
                    > USED AT LINE 1966 IN MAIN.asm
                    > USED AT LINE 1968 IN MAIN.asm
VHEAPPTR:           55EA DEFINED AT LINE 38 IN ram.asm
                    > USED AT LINE 473 IN MAIN.asm
                    > USED AT LINE 507 IN MAIN.asm
                    > USED AT LINE 511 IN MAIN.asm
                    > USED AT LINE 1164 IN MAIN.asm
                    > USED AT LINE 1168 IN MAIN.asm
                    > USED AT LINE 1229 IN MAIN.asm
                    > USED AT LINE 1429 IN MAIN.asm
                    > USED AT LINE 1446 IN MAIN.asm
                    > USED AT LINE 1454 IN MAIN.asm
                    > USED AT LINE 1533 IN MAIN.asm
                    > USED AT LINE 1552 IN MAIN.asm
                    > USED AT LINE 1977 IN MAIN.asm
                    > USED AT LINE 2012 IN MAIN.asm
                    > USED AT LINE 2080 IN MAIN.asm
                    > USED AT LINE 2083 IN MAIN.asm
                    > USED AT LINE 2105 IN MAIN.asm
                    > USED AT LINE 2110 IN MAIN.asm
                    > USED AT LINE 2141 IN MAIN.asm
                    > USED AT LINE 2207 IN MAIN.asm
VRECURPTR:          55EC DEFINED AT LINE 39 IN ram.asm
                    > USED AT LINE 1139 IN MAIN.asm
                    > USED AT LINE 1689 IN MAIN.asm
                    > USED AT LINE 1696 IN MAIN.asm
VDATAWIDTH:         55EE DEFINED AT LINE 40 IN ram.asm
                    > USED AT LINE 267 IN MAIN.asm
                    > USED AT LINE 484 IN MAIN.asm
                    > USED AT LINE 656 IN MAIN.asm
                    > USED AT LINE 736 IN MAIN.asm
                    > USED AT LINE 1034 IN MAIN.asm
                    > USED AT LINE 1065 IN MAIN.asm
                    > USED AT LINE 1809 IN MAIN.asm
                    > USED AT LINE 1871 IN MAIN.asm
                    > USED AT LINE 2220 IN MAIN.asm
VNUMBASE:           55EF DEFINED AT LINE 41 IN ram.asm
                    > USED AT LINE 645 IN MAIN.asm
                    > USED AT LINE 1092 IN MAIN.asm
VHEXPREFIX:         55F0 DEFINED AT LINE 42 IN ram.asm
                    > USED AT LINE 729 IN MAIN.asm
                    > USED AT LINE 1237 IN MAIN.asm
VECHO:              55F1 DEFINED AT LINE 43 IN ram.asm
                    > USED AT LINE 1225 IN MAIN.asm
                    > USED AT LINE 1437 IN MAIN.asm
VSTRMODE:           55F2 DEFINED AT LINE 44 IN ram.asm
                    > USED AT LINE 1149 IN MAIN.asm
                    > USED AT LINE 1154 IN MAIN.asm
                    > USED AT LINE 1960 IN MAIN.asm
VPOINTER:           55F8 DEFINED AT LINE 53 IN ram.asm
                    > USED AT LINE 414 IN MAIN.asm
                    > USED AT LINE 592 IN MAIN.asm
                    > USED AT LINE 593 IN MAIN.asm
                    > USED AT LINE 1592 IN MAIN.asm
                    > USED AT LINE 1806 IN MAIN.asm
                    > USED AT LINE 2218 IN MAIN.asm
VREMAIN:            55FA DEFINED AT LINE 54 IN ram.asm
                    > USED AT LINE 985 IN MAIN.asm
                    > USED AT LINE 1143 IN MAIN.asm
VSAVEDIP:           55FC DEFINED AT LINE 56 IN ram.asm
                    > USED AT LINE 2428 IN MAIN.asm
                    > USED AT LINE 2548 IN MAIN.asm
VSAVEDSP:           55FE DEFINED AT LINE 57 IN ram.asm
                    > USED AT LINE 2429 IN MAIN.asm
                    > USED AT LINE 2549 IN MAIN.asm
VSAVEDNEXT:         5600 DEFINED AT LINE 58 IN ram.asm
                    > USED AT LINE 2430 IN MAIN.asm
                    > USED AT LINE 2550 IN MAIN.asm
VSAVEDBP:           5602 DEFINED AT LINE 59 IN ram.asm
                    > USED AT LINE 2431 IN MAIN.asm
                    > USED AT LINE 2551 IN MAIN.asm
VTEMP1:             5604 DEFINED AT LINE 63 IN ram.asm
                    > USED AT LINE 466 IN MAIN.asm
                    > USED AT LINE 512 IN MAIN.asm
                    > USED AT LINE 1159 IN MAIN.asm
                    > USED AT LINE 1169 IN MAIN.asm
                    > USED AT LINE 1644 IN MAIN.asm
                    > USED AT LINE 1688 IN MAIN.asm
                    > USED AT LINE 1700 IN MAIN.asm
                    > USED AT LINE 1706 IN MAIN.asm
                    > USED AT LINE 1735 IN MAIN.asm
                    > USED AT LINE 1756 IN MAIN.asm
                    > USED AT LINE 1763 IN MAIN.asm
                    > USED AT LINE 1769 IN MAIN.asm
                    > USED AT LINE 1860 IN MAIN.asm
                    > USED AT LINE 1884 IN MAIN.asm
                    > USED AT LINE 1900 IN MAIN.asm
                    > USED AT LINE 1908 IN MAIN.asm
                    > USED AT LINE 1924 IN MAIN.asm
                    > USED AT LINE 1933 IN MAIN.asm
                    > USED AT LINE 2075 IN MAIN.asm
                    > USED AT LINE 2084 IN MAIN.asm
                    > USED AT LINE 2096 IN MAIN.asm
                    > USED AT LINE 2208 IN MAIN.asm
VTEMP2:             5606 DEFINED AT LINE 64 IN ram.asm
                    > USED AT LINE 1647 IN MAIN.asm
                    > USED AT LINE 1687 IN MAIN.asm
                    > USED AT LINE 1736 IN MAIN.asm
                    > USED AT LINE 1757 IN MAIN.asm
                    > USED AT LINE 2098 IN MAIN.asm
                    > USED AT LINE 2198 IN MAIN.asm
VTEMP3:             5608 DEFINED AT LINE 65 IN ram.asm
                    > USED AT LINE 2095 IN MAIN.asm
                    > USED AT LINE 2209 IN MAIN.asm
TBPTR:              560C DEFINED AT LINE 67 IN ram.asm
TITLEBUF:           560E DEFINED AT LINE 69 IN ram.asm
                    > USED AT LINE 2417 IN MAIN.asm
                    > USED AT LINE 2436 IN MAIN.asm
                    > USED AT LINE 2466 IN MAIN.asm
HEAP:               5622 DEFINED AT LINE 71 IN ram.asm
                    > USED AT LINE 156 IN MAIN.asm
                    > USED AT LINE 1078 IN MAIN.asm
                    > USED AT LINE 2068 IN MAIN.asm
